Archive member included because of file (symbol)

c:/siliconlabs/simplicitystudio/v3/developer/toolchains/gnu_arm/4.8_2013q4/bin/../lib/gcc/arm-none-eabi/4.8.3/../../../../arm-none-eabi/lib/armv7-m\libc.a(lib_a-exit.o)
                              c:/siliconlabs/simplicitystudio/v3/developer/toolchains/gnu_arm/4.8_2013q4/bin/../lib/gcc/arm-none-eabi/4.8.3/../../../../arm-none-eabi/lib/armv7-m/crt0.o (exit)
c:/siliconlabs/simplicitystudio/v3/developer/toolchains/gnu_arm/4.8_2013q4/bin/../lib/gcc/arm-none-eabi/4.8.3/../../../../arm-none-eabi/lib/armv7-m\libc.a(lib_a-impure.o)
                              c:/siliconlabs/simplicitystudio/v3/developer/toolchains/gnu_arm/4.8_2013q4/bin/../lib/gcc/arm-none-eabi/4.8.3/../../../../arm-none-eabi/lib/armv7-m\libc.a(lib_a-exit.o) (_global_impure_ptr)
c:/siliconlabs/simplicitystudio/v3/developer/toolchains/gnu_arm/4.8_2013q4/bin/../lib/gcc/arm-none-eabi/4.8.3/../../../../arm-none-eabi/lib/armv7-m\libc.a(lib_a-init.o)
                              c:/siliconlabs/simplicitystudio/v3/developer/toolchains/gnu_arm/4.8_2013q4/bin/../lib/gcc/arm-none-eabi/4.8.3/../../../../arm-none-eabi/lib/armv7-m/crt0.o (__libc_init_array)
c:/siliconlabs/simplicitystudio/v3/developer/toolchains/gnu_arm/4.8_2013q4/bin/../lib/gcc/arm-none-eabi/4.8.3/../../../../arm-none-eabi/lib/armv7-m\libc.a(lib_a-memset.o)
                              c:/siliconlabs/simplicitystudio/v3/developer/toolchains/gnu_arm/4.8_2013q4/bin/../lib/gcc/arm-none-eabi/4.8.3/../../../../arm-none-eabi/lib/armv7-m/crt0.o (memset)
c:/siliconlabs/simplicitystudio/v3/developer/toolchains/gnu_arm/4.8_2013q4/bin/../lib/gcc/arm-none-eabi/4.8.3/../../../../arm-none-eabi/lib/armv7-m\libc.a(lib_a-__call_atexit.o)
                              c:/siliconlabs/simplicitystudio/v3/developer/toolchains/gnu_arm/4.8_2013q4/bin/../lib/gcc/arm-none-eabi/4.8.3/../../../../arm-none-eabi/lib/armv7-m\libc.a(lib_a-exit.o) (__call_exitprocs)
c:/siliconlabs/simplicitystudio/v3/developer/toolchains/gnu_arm/4.8_2013q4/bin/../lib/gcc/arm-none-eabi/4.8.3/../../../../arm-none-eabi/lib/armv7-m\libc.a(lib_a-atexit.o)
                              c:/siliconlabs/simplicitystudio/v3/developer/toolchains/gnu_arm/4.8_2013q4/bin/../lib/gcc/arm-none-eabi/4.8.3/../../../../arm-none-eabi/lib/armv7-m\libc.a(lib_a-__call_atexit.o) (atexit)
c:/siliconlabs/simplicitystudio/v3/developer/toolchains/gnu_arm/4.8_2013q4/bin/../lib/gcc/arm-none-eabi/4.8.3/../../../../arm-none-eabi/lib/armv7-m\libc.a(lib_a-fini.o)
                              c:/siliconlabs/simplicitystudio/v3/developer/toolchains/gnu_arm/4.8_2013q4/bin/../lib/gcc/arm-none-eabi/4.8.3/../../../../arm-none-eabi/lib/armv7-m\libc.a(lib_a-__call_atexit.o) (__libc_fini_array)
c:/siliconlabs/simplicitystudio/v3/developer/toolchains/gnu_arm/4.8_2013q4/bin/../lib/gcc/arm-none-eabi/4.8.3/../../../../arm-none-eabi/lib/armv7-m\libc.a(lib_a-__atexit.o)
                              c:/siliconlabs/simplicitystudio/v3/developer/toolchains/gnu_arm/4.8_2013q4/bin/../lib/gcc/arm-none-eabi/4.8.3/../../../../arm-none-eabi/lib/armv7-m\libc.a(lib_a-atexit.o) (__register_exitproc)
c:/siliconlabs/simplicitystudio/v3/developer/toolchains/gnu_arm/4.8_2013q4/bin/../lib/gcc/arm-none-eabi/4.8.3/../../../../arm-none-eabi/lib/armv7-m\libnosys.a(_exit.o)
                              c:/siliconlabs/simplicitystudio/v3/developer/toolchains/gnu_arm/4.8_2013q4/bin/../lib/gcc/arm-none-eabi/4.8.3/../../../../arm-none-eabi/lib/armv7-m\libc.a(lib_a-exit.o) (_exit)
c:/siliconlabs/simplicitystudio/v3/developer/toolchains/gnu_arm/4.8_2013q4/bin/../lib/gcc/arm-none-eabi/4.8.3/../../../../arm-none-eabi/lib/armv7-m\libg.a(lib_a-rand.o)
                              gen/jswrapper.o (symbol from plugin) (srand)
c:/siliconlabs/simplicitystudio/v3/developer/toolchains/gnu_arm/4.8_2013q4/bin/../lib/gcc/arm-none-eabi/4.8.3/armv7-m\libgcc.a(_arm_addsubdf3.o)
                              C:\Users\apsyvert\AppData\Local\Temp\cc8fH946.ltrans0.ltrans.o (__aeabi_dsub)
c:/siliconlabs/simplicitystudio/v3/developer/toolchains/gnu_arm/4.8_2013q4/bin/../lib/gcc/arm-none-eabi/4.8.3/armv7-m\libgcc.a(_arm_muldivdf3.o)
                              C:\Users\apsyvert\AppData\Local\Temp\cc8fH946.ltrans0.ltrans.o (__aeabi_dmul)
c:/siliconlabs/simplicitystudio/v3/developer/toolchains/gnu_arm/4.8_2013q4/bin/../lib/gcc/arm-none-eabi/4.8.3/armv7-m\libgcc.a(_arm_cmpdf2.o)
                              C:\Users\apsyvert\AppData\Local\Temp\cc8fH946.ltrans0.ltrans.o (__aeabi_dcmpeq)
c:/siliconlabs/simplicitystudio/v3/developer/toolchains/gnu_arm/4.8_2013q4/bin/../lib/gcc/arm-none-eabi/4.8.3/armv7-m\libgcc.a(_arm_unorddf2.o)
                              C:\Users\apsyvert\AppData\Local\Temp\cc8fH946.ltrans0.ltrans.o (__aeabi_dcmpun)
c:/siliconlabs/simplicitystudio/v3/developer/toolchains/gnu_arm/4.8_2013q4/bin/../lib/gcc/arm-none-eabi/4.8.3/armv7-m\libgcc.a(_arm_fixdfsi.o)
                              C:\Users\apsyvert\AppData\Local\Temp\cc8fH946.ltrans0.ltrans.o (__aeabi_d2iz)
c:/siliconlabs/simplicitystudio/v3/developer/toolchains/gnu_arm/4.8_2013q4/bin/../lib/gcc/arm-none-eabi/4.8.3/armv7-m\libgcc.a(_arm_fixunsdfsi.o)
                              C:\Users\apsyvert\AppData\Local\Temp\cc8fH946.ltrans5.ltrans.o (__aeabi_d2uiz)
c:/siliconlabs/simplicitystudio/v3/developer/toolchains/gnu_arm/4.8_2013q4/bin/../lib/gcc/arm-none-eabi/4.8.3/armv7-m\libgcc.a(_arm_truncdfsf2.o)
                              C:\Users\apsyvert\AppData\Local\Temp\cc8fH946.ltrans23.ltrans.o (__aeabi_d2f)
c:/siliconlabs/simplicitystudio/v3/developer/toolchains/gnu_arm/4.8_2013q4/bin/../lib/gcc/arm-none-eabi/4.8.3/armv7-m\libgcc.a(_aeabi_ldivmod.o)
                              C:\Users\apsyvert\AppData\Local\Temp\cc8fH946.ltrans9.ltrans.o (__aeabi_ldivmod)
c:/siliconlabs/simplicitystudio/v3/developer/toolchains/gnu_arm/4.8_2013q4/bin/../lib/gcc/arm-none-eabi/4.8.3/armv7-m\libgcc.a(_aeabi_uldivmod.o)
                              C:\Users\apsyvert\AppData\Local\Temp\cc8fH946.ltrans8.ltrans.o (__aeabi_uldivmod)
c:/siliconlabs/simplicitystudio/v3/developer/toolchains/gnu_arm/4.8_2013q4/bin/../lib/gcc/arm-none-eabi/4.8.3/armv7-m\libgcc.a(_fixdfdi.o)
                              C:\Users\apsyvert\AppData\Local\Temp\cc8fH946.ltrans10.ltrans.o (__aeabi_d2lz)
c:/siliconlabs/simplicitystudio/v3/developer/toolchains/gnu_arm/4.8_2013q4/bin/../lib/gcc/arm-none-eabi/4.8.3/armv7-m\libgcc.a(_fixunsdfdi.o)
                              c:/siliconlabs/simplicitystudio/v3/developer/toolchains/gnu_arm/4.8_2013q4/bin/../lib/gcc/arm-none-eabi/4.8.3/armv7-m\libgcc.a(_fixdfdi.o) (__aeabi_d2ulz)
c:/siliconlabs/simplicitystudio/v3/developer/toolchains/gnu_arm/4.8_2013q4/bin/../lib/gcc/arm-none-eabi/4.8.3/armv7-m\libgcc.a(bpabi.o)
                              c:/siliconlabs/simplicitystudio/v3/developer/toolchains/gnu_arm/4.8_2013q4/bin/../lib/gcc/arm-none-eabi/4.8.3/armv7-m\libgcc.a(_aeabi_ldivmod.o) (__gnu_ldivmod_helper)
c:/siliconlabs/simplicitystudio/v3/developer/toolchains/gnu_arm/4.8_2013q4/bin/../lib/gcc/arm-none-eabi/4.8.3/armv7-m\libgcc.a(_dvmd_tls.o)
                              c:/siliconlabs/simplicitystudio/v3/developer/toolchains/gnu_arm/4.8_2013q4/bin/../lib/gcc/arm-none-eabi/4.8.3/armv7-m\libgcc.a(_aeabi_ldivmod.o) (__aeabi_ldiv0)
c:/siliconlabs/simplicitystudio/v3/developer/toolchains/gnu_arm/4.8_2013q4/bin/../lib/gcc/arm-none-eabi/4.8.3/armv7-m\libgcc.a(_divdi3.o)
                              c:/siliconlabs/simplicitystudio/v3/developer/toolchains/gnu_arm/4.8_2013q4/bin/../lib/gcc/arm-none-eabi/4.8.3/armv7-m\libgcc.a(bpabi.o) (__divdi3)
c:/siliconlabs/simplicitystudio/v3/developer/toolchains/gnu_arm/4.8_2013q4/bin/../lib/gcc/arm-none-eabi/4.8.3/armv7-m\libgcc.a(_udivdi3.o)
                              c:/siliconlabs/simplicitystudio/v3/developer/toolchains/gnu_arm/4.8_2013q4/bin/../lib/gcc/arm-none-eabi/4.8.3/armv7-m\libgcc.a(bpabi.o) (__udivdi3)
c:/siliconlabs/simplicitystudio/v3/developer/toolchains/gnu_arm/4.8_2013q4/bin/../lib/gcc/arm-none-eabi/4.8.3/../../../../arm-none-eabi/lib/armv7-m\libg.a(lib_a-memcpy.o)
                              C:\Users\apsyvert\AppData\Local\Temp\cc8fH946.ltrans9.ltrans.o (memcpy)
c:/siliconlabs/simplicitystudio/v3/developer/toolchains/gnu_arm/4.8_2013q4/bin/../lib/gcc/arm-none-eabi/4.8.3/../../../../arm-none-eabi/lib/armv7-m\libg.a(lib_a-memmove.o)
                              C:\Users\apsyvert\AppData\Local\Temp\cc8fH946.ltrans13.ltrans.o (memmove)
c:/siliconlabs/simplicitystudio/v3/developer/toolchains/gnu_arm/4.8_2013q4/bin/../lib/gcc/arm-none-eabi/4.8.3/../../../../arm-none-eabi/lib/armv7-m\libg.a(lib_a-strcmp.o)
                              C:\Users\apsyvert\AppData\Local\Temp\cc8fH946.ltrans5.ltrans.o (strcmp)
c:/siliconlabs/simplicitystudio/v3/developer/toolchains/gnu_arm/4.8_2013q4/bin/../lib/gcc/arm-none-eabi/4.8.3/../../../../arm-none-eabi/lib/armv7-m\libg.a(lib_a-strlen.o)
                              C:\Users\apsyvert\AppData\Local\Temp\cc8fH946.ltrans15.ltrans.o (strlen)
c:/siliconlabs/simplicitystudio/v3/developer/toolchains/gnu_arm/4.8_2013q4/bin/../lib/gcc/arm-none-eabi/4.8.3/../../../../arm-none-eabi/lib/armv7-m\libg.a(lib_a-strncat.o)
                              C:\Users\apsyvert\AppData\Local\Temp\cc8fH946.ltrans18.ltrans.o (strncat)
c:/siliconlabs/simplicitystudio/v3/developer/toolchains/gnu_arm/4.8_2013q4/bin/../lib/gcc/arm-none-eabi/4.8.3/../../../../arm-none-eabi/lib/armv7-m\libg.a(lib_a-strncpy.o)
                              C:\Users\apsyvert\AppData\Local\Temp\cc8fH946.ltrans22.ltrans.o (strncpy)

Discarded input sections

 .text          0x00000000        0x0 c:/siliconlabs/simplicitystudio/v3/developer/toolchains/gnu_arm/4.8_2013q4/bin/../lib/gcc/arm-none-eabi/4.8.3/armv7-m/crti.o
 .data          0x00000000        0x0 c:/siliconlabs/simplicitystudio/v3/developer/toolchains/gnu_arm/4.8_2013q4/bin/../lib/gcc/arm-none-eabi/4.8.3/armv7-m/crti.o
 .bss           0x00000000        0x0 c:/siliconlabs/simplicitystudio/v3/developer/toolchains/gnu_arm/4.8_2013q4/bin/../lib/gcc/arm-none-eabi/4.8.3/armv7-m/crti.o
 .data          0x00000000        0x4 c:/siliconlabs/simplicitystudio/v3/developer/toolchains/gnu_arm/4.8_2013q4/bin/../lib/gcc/arm-none-eabi/4.8.3/armv7-m/crtbegin.o
 .data          0x00000000        0x0 c:/siliconlabs/simplicitystudio/v3/developer/toolchains/gnu_arm/4.8_2013q4/bin/../lib/gcc/arm-none-eabi/4.8.3/../../../../arm-none-eabi/lib/armv7-m/crt0.o
 .bss           0x00000000        0x0 c:/siliconlabs/simplicitystudio/v3/developer/toolchains/gnu_arm/4.8_2013q4/bin/../lib/gcc/arm-none-eabi/4.8.3/../../../../arm-none-eabi/lib/armv7-m/crt0.o
 .ARM.extab     0x00000000        0x0 c:/siliconlabs/simplicitystudio/v3/developer/toolchains/gnu_arm/4.8_2013q4/bin/../lib/gcc/arm-none-eabi/4.8.3/../../../../arm-none-eabi/lib/armv7-m/crt0.o
 .text          0x00000000        0x0 c:/siliconlabs/simplicitystudio/v3/developer/toolchains/gnu_arm/4.8_2013q4/bin/../lib/gcc/arm-none-eabi/4.8.3/../../../../arm-none-eabi/lib/armv7-m\libc.a(lib_a-exit.o)
 .data          0x00000000        0x0 c:/siliconlabs/simplicitystudio/v3/developer/toolchains/gnu_arm/4.8_2013q4/bin/../lib/gcc/arm-none-eabi/4.8.3/../../../../arm-none-eabi/lib/armv7-m\libc.a(lib_a-exit.o)
 .bss           0x00000000        0x0 c:/siliconlabs/simplicitystudio/v3/developer/toolchains/gnu_arm/4.8_2013q4/bin/../lib/gcc/arm-none-eabi/4.8.3/../../../../arm-none-eabi/lib/armv7-m\libc.a(lib_a-exit.o)
 .text          0x00000000        0x0 c:/siliconlabs/simplicitystudio/v3/developer/toolchains/gnu_arm/4.8_2013q4/bin/../lib/gcc/arm-none-eabi/4.8.3/../../../../arm-none-eabi/lib/armv7-m\libc.a(lib_a-impure.o)
 .data          0x00000000        0x0 c:/siliconlabs/simplicitystudio/v3/developer/toolchains/gnu_arm/4.8_2013q4/bin/../lib/gcc/arm-none-eabi/4.8.3/../../../../arm-none-eabi/lib/armv7-m\libc.a(lib_a-impure.o)
 .bss           0x00000000        0x0 c:/siliconlabs/simplicitystudio/v3/developer/toolchains/gnu_arm/4.8_2013q4/bin/../lib/gcc/arm-none-eabi/4.8.3/../../../../arm-none-eabi/lib/armv7-m\libc.a(lib_a-impure.o)
 .text          0x00000000        0x0 c:/siliconlabs/simplicitystudio/v3/developer/toolchains/gnu_arm/4.8_2013q4/bin/../lib/gcc/arm-none-eabi/4.8.3/../../../../arm-none-eabi/lib/armv7-m\libc.a(lib_a-init.o)
 .data          0x00000000        0x0 c:/siliconlabs/simplicitystudio/v3/developer/toolchains/gnu_arm/4.8_2013q4/bin/../lib/gcc/arm-none-eabi/4.8.3/../../../../arm-none-eabi/lib/armv7-m\libc.a(lib_a-init.o)
 .bss           0x00000000        0x0 c:/siliconlabs/simplicitystudio/v3/developer/toolchains/gnu_arm/4.8_2013q4/bin/../lib/gcc/arm-none-eabi/4.8.3/../../../../arm-none-eabi/lib/armv7-m\libc.a(lib_a-init.o)
 .text          0x00000000        0x0 c:/siliconlabs/simplicitystudio/v3/developer/toolchains/gnu_arm/4.8_2013q4/bin/../lib/gcc/arm-none-eabi/4.8.3/../../../../arm-none-eabi/lib/armv7-m\libc.a(lib_a-memset.o)
 .data          0x00000000        0x0 c:/siliconlabs/simplicitystudio/v3/developer/toolchains/gnu_arm/4.8_2013q4/bin/../lib/gcc/arm-none-eabi/4.8.3/../../../../arm-none-eabi/lib/armv7-m\libc.a(lib_a-memset.o)
 .bss           0x00000000        0x0 c:/siliconlabs/simplicitystudio/v3/developer/toolchains/gnu_arm/4.8_2013q4/bin/../lib/gcc/arm-none-eabi/4.8.3/../../../../arm-none-eabi/lib/armv7-m\libc.a(lib_a-memset.o)
 .text          0x00000000        0x0 c:/siliconlabs/simplicitystudio/v3/developer/toolchains/gnu_arm/4.8_2013q4/bin/../lib/gcc/arm-none-eabi/4.8.3/../../../../arm-none-eabi/lib/armv7-m\libc.a(lib_a-__call_atexit.o)
 .data          0x00000000        0x0 c:/siliconlabs/simplicitystudio/v3/developer/toolchains/gnu_arm/4.8_2013q4/bin/../lib/gcc/arm-none-eabi/4.8.3/../../../../arm-none-eabi/lib/armv7-m\libc.a(lib_a-__call_atexit.o)
 .bss           0x00000000        0x0 c:/siliconlabs/simplicitystudio/v3/developer/toolchains/gnu_arm/4.8_2013q4/bin/../lib/gcc/arm-none-eabi/4.8.3/../../../../arm-none-eabi/lib/armv7-m\libc.a(lib_a-__call_atexit.o)
 .text          0x00000000        0x0 c:/siliconlabs/simplicitystudio/v3/developer/toolchains/gnu_arm/4.8_2013q4/bin/../lib/gcc/arm-none-eabi/4.8.3/../../../../arm-none-eabi/lib/armv7-m\libc.a(lib_a-atexit.o)
 .data          0x00000000        0x0 c:/siliconlabs/simplicitystudio/v3/developer/toolchains/gnu_arm/4.8_2013q4/bin/../lib/gcc/arm-none-eabi/4.8.3/../../../../arm-none-eabi/lib/armv7-m\libc.a(lib_a-atexit.o)
 .bss           0x00000000        0x0 c:/siliconlabs/simplicitystudio/v3/developer/toolchains/gnu_arm/4.8_2013q4/bin/../lib/gcc/arm-none-eabi/4.8.3/../../../../arm-none-eabi/lib/armv7-m\libc.a(lib_a-atexit.o)
 .text          0x00000000        0x0 c:/siliconlabs/simplicitystudio/v3/developer/toolchains/gnu_arm/4.8_2013q4/bin/../lib/gcc/arm-none-eabi/4.8.3/../../../../arm-none-eabi/lib/armv7-m\libc.a(lib_a-fini.o)
 .data          0x00000000        0x0 c:/siliconlabs/simplicitystudio/v3/developer/toolchains/gnu_arm/4.8_2013q4/bin/../lib/gcc/arm-none-eabi/4.8.3/../../../../arm-none-eabi/lib/armv7-m\libc.a(lib_a-fini.o)
 .bss           0x00000000        0x0 c:/siliconlabs/simplicitystudio/v3/developer/toolchains/gnu_arm/4.8_2013q4/bin/../lib/gcc/arm-none-eabi/4.8.3/../../../../arm-none-eabi/lib/armv7-m\libc.a(lib_a-fini.o)
 .text          0x00000000        0x0 c:/siliconlabs/simplicitystudio/v3/developer/toolchains/gnu_arm/4.8_2013q4/bin/../lib/gcc/arm-none-eabi/4.8.3/../../../../arm-none-eabi/lib/armv7-m\libc.a(lib_a-__atexit.o)
 .data          0x00000000        0x0 c:/siliconlabs/simplicitystudio/v3/developer/toolchains/gnu_arm/4.8_2013q4/bin/../lib/gcc/arm-none-eabi/4.8.3/../../../../arm-none-eabi/lib/armv7-m\libc.a(lib_a-__atexit.o)
 .bss           0x00000000        0x0 c:/siliconlabs/simplicitystudio/v3/developer/toolchains/gnu_arm/4.8_2013q4/bin/../lib/gcc/arm-none-eabi/4.8.3/../../../../arm-none-eabi/lib/armv7-m\libc.a(lib_a-__atexit.o)
 .text          0x00000000        0x0 c:/siliconlabs/simplicitystudio/v3/developer/toolchains/gnu_arm/4.8_2013q4/bin/../lib/gcc/arm-none-eabi/4.8.3/../../../../arm-none-eabi/lib/armv7-m\libnosys.a(_exit.o)
 .data          0x00000000        0x0 c:/siliconlabs/simplicitystudio/v3/developer/toolchains/gnu_arm/4.8_2013q4/bin/../lib/gcc/arm-none-eabi/4.8.3/../../../../arm-none-eabi/lib/armv7-m\libnosys.a(_exit.o)
 .bss           0x00000000        0x0 c:/siliconlabs/simplicitystudio/v3/developer/toolchains/gnu_arm/4.8_2013q4/bin/../lib/gcc/arm-none-eabi/4.8.3/../../../../arm-none-eabi/lib/armv7-m\libnosys.a(_exit.o)
 .text          0x00000000        0x0 src/jslex.o (symbol from plugin)
 .text          0x00000000        0x0 C:\Users\apsyvert\AppData\Local\Temp\cc8fH946.ltrans0.ltrans.o
 .data          0x00000000        0x0 C:\Users\apsyvert\AppData\Local\Temp\cc8fH946.ltrans0.ltrans.o
 .bss           0x00000000        0x0 C:\Users\apsyvert\AppData\Local\Temp\cc8fH946.ltrans0.ltrans.o
 .bss.utilTimerBit.5954
                0x00000000        0x4 C:\Users\apsyvert\AppData\Local\Temp\cc8fH946.ltrans0.ltrans.o
 .bss.utilTimerData.5952
                0x00000000        0x4 C:\Users\apsyvert\AppData\Local\Temp\cc8fH946.ltrans0.ltrans.o
 .bss.utilTimerReload0H.5951
                0x00000000        0x2 C:\Users\apsyvert\AppData\Local\Temp\cc8fH946.ltrans0.ltrans.o
 .bss.utilTimerReload0L.5950
                0x00000000        0x2 C:\Users\apsyvert\AppData\Local\Temp\cc8fH946.ltrans0.ltrans.o
 .bss.utilTimerReload1H.5949
                0x00000000        0x2 C:\Users\apsyvert\AppData\Local\Temp\cc8fH946.ltrans0.ltrans.o
 .bss.utilTimerReload1L.5948
                0x00000000        0x2 C:\Users\apsyvert\AppData\Local\Temp\cc8fH946.ltrans0.ltrans.o
 .rodata.jswSymbolIndex_I2C.9145.5927
                0x00000000        0x1 C:\Users\apsyvert\AppData\Local\Temp\cc8fH946.ltrans0.ltrans.o
 .rodata.jswSymbolIndex_Number_proto.9144.5926
                0x00000000        0x1 C:\Users\apsyvert\AppData\Local\Temp\cc8fH946.ltrans0.ltrans.o
 .rodata.jswSymbolIndex_Number.9143.5925
                0x00000000        0x1 C:\Users\apsyvert\AppData\Local\Temp\cc8fH946.ltrans0.ltrans.o
 .rodata.jswSymbolIndex_JSON.9142.5924
                0x00000000        0x1 C:\Users\apsyvert\AppData\Local\Temp\cc8fH946.ltrans0.ltrans.o
 .rodata.jswSymbolIndex_Flash.9141.5923
                0x00000000        0x1 C:\Users\apsyvert\AppData\Local\Temp\cc8fH946.ltrans0.ltrans.o
 .rodata.jswSymbolIndex_ReferenceError_proto.9140.5922
                0x00000000        0x1 C:\Users\apsyvert\AppData\Local\Temp\cc8fH946.ltrans0.ltrans.o
 .rodata.jswSymbolIndex_Date_proto.9139.5921
                0x00000000        0x1 C:\Users\apsyvert\AppData\Local\Temp\cc8fH946.ltrans0.ltrans.o
 .rodata.jswSymbolIndex_E.9138.5920
                0x00000000        0x1 C:\Users\apsyvert\AppData\Local\Temp\cc8fH946.ltrans0.ltrans.o
 .rodata.jswSymbolIndex_Error_proto.9137.5919
                0x00000000        0x1 C:\Users\apsyvert\AppData\Local\Temp\cc8fH946.ltrans0.ltrans.o
 .rodata.jswSymbolIndex_Serial.9136.5918
                0x00000000        0x1 C:\Users\apsyvert\AppData\Local\Temp\cc8fH946.ltrans0.ltrans.o
 .rodata.jswSymbolIndex_TypeError_proto.9135.5917
                0x00000000        0x1 C:\Users\apsyvert\AppData\Local\Temp\cc8fH946.ltrans0.ltrans.o
 .rodata.jswSymbolIndex_Math.9134.5916
                0x00000000        0x1 C:\Users\apsyvert\AppData\Local\Temp\cc8fH946.ltrans0.ltrans.o
 .rodata.jswSymbolIndex_SPI_proto.9133.5915
                0x00000000        0x1 C:\Users\apsyvert\AppData\Local\Temp\cc8fH946.ltrans0.ltrans.o
 .rodata.jswSymbolIndex_Object_proto.9132.5914
                0x00000000        0x1 C:\Users\apsyvert\AppData\Local\Temp\cc8fH946.ltrans0.ltrans.o
 .rodata.jswSymbolIndex_String_proto.9131.5913
                0x00000000        0x1 C:\Users\apsyvert\AppData\Local\Temp\cc8fH946.ltrans0.ltrans.o
 .rodata.jswSymbolIndex_Serial_proto.9130.5912
                0x00000000        0x1 C:\Users\apsyvert\AppData\Local\Temp\cc8fH946.ltrans0.ltrans.o
 .rodata.jswSymbolIndex_SyntaxError_proto.9129.5911
                0x00000000        0x1 C:\Users\apsyvert\AppData\Local\Temp\cc8fH946.ltrans0.ltrans.o
 .rodata.jswSymbolIndex_global.9128.5910
                0x00000000        0x1 C:\Users\apsyvert\AppData\Local\Temp\cc8fH946.ltrans0.ltrans.o
 .rodata.jswSymbolIndex_Array.9127.5909
                0x00000000        0x1 C:\Users\apsyvert\AppData\Local\Temp\cc8fH946.ltrans0.ltrans.o
 .rodata.jswSymbolIndex_Object.9126.5908
                0x00000000        0x1 C:\Users\apsyvert\AppData\Local\Temp\cc8fH946.ltrans0.ltrans.o
 .rodata.jswSymbolIndex_Array_proto.9125.5907
                0x00000000        0x1 C:\Users\apsyvert\AppData\Local\Temp\cc8fH946.ltrans0.ltrans.o
 .rodata.jswSymbolIndex_Pin_proto.9124.5906
                0x00000000        0x1 C:\Users\apsyvert\AppData\Local\Temp\cc8fH946.ltrans0.ltrans.o
 .rodata.jswSymbolIndex_fs.9123.5905
                0x00000000        0x1 C:\Users\apsyvert\AppData\Local\Temp\cc8fH946.ltrans0.ltrans.o
 .rodata.jswSymbolIndex_ArrayBufferView_proto.9122.5904
                0x00000000        0x1 C:\Users\apsyvert\AppData\Local\Temp\cc8fH946.ltrans0.ltrans.o
 .rodata.jswSymbolIndex_Function_proto.9121.5903
                0x00000000        0x1 C:\Users\apsyvert\AppData\Local\Temp\cc8fH946.ltrans0.ltrans.o
 .rodata.jswSymbolIndex_Date.9120.5902
                0x00000000        0x1 C:\Users\apsyvert\AppData\Local\Temp\cc8fH946.ltrans0.ltrans.o
 .rodata.jswSymbolIndex_console.9119.5901
                0x00000000        0x1 C:\Users\apsyvert\AppData\Local\Temp\cc8fH946.ltrans0.ltrans.o
 .rodata.jswSymbolIndex_Waveform_proto.9118.5900
                0x00000000        0x1 C:\Users\apsyvert\AppData\Local\Temp\cc8fH946.ltrans0.ltrans.o
 .rodata.jswSymbolIndex_process.9117.5899
                0x00000000        0x1 C:\Users\apsyvert\AppData\Local\Temp\cc8fH946.ltrans0.ltrans.o
 .rodata.jswSymbolIndex_I2C_proto.9116.5898
                0x00000000        0x1 C:\Users\apsyvert\AppData\Local\Temp\cc8fH946.ltrans0.ltrans.o
 .rodata.jswSymbolIndex_String.9115.5897
                0x00000000        0x1 C:\Users\apsyvert\AppData\Local\Temp\cc8fH946.ltrans0.ltrans.o
 .rodata.jswSymbolIndex_Modules.9114.5896
                0x00000000        0x1 C:\Users\apsyvert\AppData\Local\Temp\cc8fH946.ltrans0.ltrans.o
 .rodata.jswSymbolIndex_OneWire_proto.9113.5895
                0x00000000        0x1 C:\Users\apsyvert\AppData\Local\Temp\cc8fH946.ltrans0.ltrans.o
 .rodata.jswSymbolIndex_InternalError_proto.9112.5894
                0x00000000        0x1 C:\Users\apsyvert\AppData\Local\Temp\cc8fH946.ltrans0.ltrans.o
 .rodata.jswSymbolIndex_SPI.9110.5892
                0x00000000        0x1 C:\Users\apsyvert\AppData\Local\Temp\cc8fH946.ltrans0.ltrans.o
 .rodata.P.9567
                0x00000000       0x28 C:\Users\apsyvert\AppData\Local\Temp\cc8fH946.ltrans0.ltrans.o
 .rodata.Q.9569
                0x00000000       0x28 C:\Users\apsyvert\AppData\Local\Temp\cc8fH946.ltrans0.ltrans.o
 .rodata.P.9602
                0x00000000       0x28 C:\Users\apsyvert\AppData\Local\Temp\cc8fH946.ltrans0.ltrans.o
 .rodata.Q.9604
                0x00000000       0x20 C:\Users\apsyvert\AppData\Local\Temp\cc8fH946.ltrans0.ltrans.o
 .rodata.T3P8.9625.5831
                0x00000000        0x8 C:\Users\apsyvert\AppData\Local\Temp\cc8fH946.ltrans0.ltrans.o
 .rodata.P.9642
                0x00000000       0x28 C:\Users\apsyvert\AppData\Local\Temp\cc8fH946.ltrans0.ltrans.o
 .rodata.Q.9644
                0x00000000       0x28 C:\Users\apsyvert\AppData\Local\Temp\cc8fH946.ltrans0.ltrans.o
 .rodata.CBRT2.9657.5827
                0x00000000        0x8 C:\Users\apsyvert\AppData\Local\Temp\cc8fH946.ltrans0.ltrans.o
 .rodata.CBRT4.9656.5826
                0x00000000        0x8 C:\Users\apsyvert\AppData\Local\Temp\cc8fH946.ltrans0.ltrans.o
 .rodata.CBRT2I.9655.5825
                0x00000000        0x8 C:\Users\apsyvert\AppData\Local\Temp\cc8fH946.ltrans0.ltrans.o
 .rodata.CBRT4I.9653.5823
                0x00000000        0x8 C:\Users\apsyvert\AppData\Local\Temp\cc8fH946.ltrans0.ltrans.o
 .rodata.DP1.9773.5822
                0x00000000        0x8 C:\Users\apsyvert\AppData\Local\Temp\cc8fH946.ltrans0.ltrans.o
 .rodata.DP2.9772.5821
                0x00000000        0x8 C:\Users\apsyvert\AppData\Local\Temp\cc8fH946.ltrans0.ltrans.o
 .rodata.DP3.9771.5820
                0x00000000        0x8 C:\Users\apsyvert\AppData\Local\Temp\cc8fH946.ltrans0.ltrans.o
 .bss.ca.4708.9767
                0x00000000       0x10 C:\Users\apsyvert\AppData\Local\Temp\cc8fH946.ltrans0.ltrans.o
 .bss.ct.4709.9768
                0x00000000       0x10 C:\Users\apsyvert\AppData\Local\Temp\cc8fH946.ltrans0.ltrans.o
 .bss.zz.4710.9769
                0x00000000       0x10 C:\Users\apsyvert\AppData\Local\Temp\cc8fH946.ltrans0.ltrans.o
 .bss.z2.4711.9770
                0x00000000       0x10 C:\Users\apsyvert\AppData\Local\Temp\cc8fH946.ltrans0.ltrans.o
 .bss.czero.5811
                0x00000000       0x10 C:\Users\apsyvert\AppData\Local\Temp\cc8fH946.ltrans0.ltrans.o
 .data.cone.5804
                0x00000000       0x10 C:\Users\apsyvert\AppData\Local\Temp\cc8fH946.ltrans0.ltrans.o
 .rodata.MACHEP
                0x00000000        0x8 C:\Users\apsyvert\AppData\Local\Temp\cc8fH946.ltrans0.ltrans.o
 .rodata.UFLOWTHRESH.5802
                0x00000000        0x8 C:\Users\apsyvert\AppData\Local\Temp\cc8fH946.ltrans0.ltrans.o
 .rodata.SQRTH.5794
                0x00000000        0x8 C:\Users\apsyvert\AppData\Local\Temp\cc8fH946.ltrans0.ltrans.o
 .rodata.SQ2OPI.5792
                0x00000000        0x8 C:\Users\apsyvert\AppData\Local\Temp\cc8fH946.ltrans0.ltrans.o
 .rodata.LOGE2  0x00000000        0x8 C:\Users\apsyvert\AppData\Local\Temp\cc8fH946.ltrans0.ltrans.o
 .rodata.LOGSQ2.5790
                0x00000000        0x8 C:\Users\apsyvert\AppData\Local\Temp\cc8fH946.ltrans0.ltrans.o
 .rodata.THPIO4.5789
                0x00000000        0x8 C:\Users\apsyvert\AppData\Local\Temp\cc8fH946.ltrans0.ltrans.o
 .rodata.TWOOPI.5788
                0x00000000        0x8 C:\Users\apsyvert\AppData\Local\Temp\cc8fH946.ltrans0.ltrans.o
 .data.sx.9878  0x00000000        0x4 C:\Users\apsyvert\AppData\Local\Temp\cc8fH946.ltrans0.ltrans.o
 .data.sy.9879  0x00000000        0x4 C:\Users\apsyvert\AppData\Local\Temp\cc8fH946.ltrans0.ltrans.o
 .data.sz.9880  0x00000000        0x4 C:\Users\apsyvert\AppData\Local\Temp\cc8fH946.ltrans0.ltrans.o
 .bss.unkans.9881
                0x00000000        0x8 C:\Users\apsyvert\AppData\Local\Temp\cc8fH946.ltrans0.ltrans.o
 .rodata.P.9896
                0x00000000       0x20 C:\Users\apsyvert\AppData\Local\Temp\cc8fH946.ltrans0.ltrans.o
 .rodata.Q.9898
                0x00000000       0x18 C:\Users\apsyvert\AppData\Local\Temp\cc8fH946.ltrans0.ltrans.o
 .rodata.LOG210.9902.5773
                0x00000000        0x8 C:\Users\apsyvert\AppData\Local\Temp\cc8fH946.ltrans0.ltrans.o
 .rodata.LG102A.9901.5772
                0x00000000        0x8 C:\Users\apsyvert\AppData\Local\Temp\cc8fH946.ltrans0.ltrans.o
 .rodata.LG102B.9900.5771
                0x00000000        0x8 C:\Users\apsyvert\AppData\Local\Temp\cc8fH946.ltrans0.ltrans.o
 .rodata.MAXL10.9899.5769
                0x00000000        0x8 C:\Users\apsyvert\AppData\Local\Temp\cc8fH946.ltrans0.ltrans.o
 .rodata.P.9913
                0x00000000       0x18 C:\Users\apsyvert\AppData\Local\Temp\cc8fH946.ltrans0.ltrans.o
 .rodata.Q.9915
                0x00000000       0x10 C:\Users\apsyvert\AppData\Local\Temp\cc8fH946.ltrans0.ltrans.o
 .rodata.C1.9932.5763
                0x00000000        0x8 C:\Users\apsyvert\AppData\Local\Temp\cc8fH946.ltrans0.ltrans.o
 .rodata.C2.9931.5761
                0x00000000        0x8 C:\Users\apsyvert\AppData\Local\Temp\cc8fH946.ltrans0.ltrans.o
 .data.fname.10012
                0x00000000        0x8 C:\Users\apsyvert\AppData\Local\Temp\cc8fH946.ltrans0.ltrans.o
 .rodata.P.10014
                0x00000000       0x38 C:\Users\apsyvert\AppData\Local\Temp\cc8fH946.ltrans0.ltrans.o
 .rodata.Q.10016
                0x00000000       0x30 C:\Users\apsyvert\AppData\Local\Temp\cc8fH946.ltrans0.ltrans.o
 .data.fname.10029
                0x00000000        0x8 C:\Users\apsyvert\AppData\Local\Temp\cc8fH946.ltrans0.ltrans.o
 .rodata.P.10034
                0x00000000       0x30 C:\Users\apsyvert\AppData\Local\Temp\cc8fH946.ltrans0.ltrans.o
 .rodata.Q.10035
                0x00000000       0x28 C:\Users\apsyvert\AppData\Local\Temp\cc8fH946.ltrans0.ltrans.o
 .rodata.R.10031
                0x00000000       0x18 C:\Users\apsyvert\AppData\Local\Temp\cc8fH946.ltrans0.ltrans.o
 .rodata.S.10033
                0x00000000       0x18 C:\Users\apsyvert\AppData\Local\Temp\cc8fH946.ltrans0.ltrans.o
 .bss.merror.5742
                0x00000000        0x4 C:\Users\apsyvert\AppData\Local\Temp\cc8fH946.ltrans0.ltrans.o
 .data.ermsg.10064.5740
                0x00000000       0x1c C:\Users\apsyvert\AppData\Local\Temp\cc8fH946.ltrans0.ltrans.o
 .data.fname.10103
                0x00000000        0x4 C:\Users\apsyvert\AppData\Local\Temp\cc8fH946.ltrans0.ltrans.o
 .rodata.P.10106
                0x00000000       0x20 C:\Users\apsyvert\AppData\Local\Temp\cc8fH946.ltrans0.ltrans.o
 .rodata.Q.10107
                0x00000000       0x20 C:\Users\apsyvert\AppData\Local\Temp\cc8fH946.ltrans0.ltrans.o
 .rodata.A.10104
                0x00000000       0x88 C:\Users\apsyvert\AppData\Local\Temp\cc8fH946.ltrans0.ltrans.o
 .rodata.B.10105
                0x00000000       0x48 C:\Users\apsyvert\AppData\Local\Temp\cc8fH946.ltrans0.ltrans.o
 .rodata.R.10108
                0x00000000       0x38 C:\Users\apsyvert\AppData\Local\Temp\cc8fH946.ltrans0.ltrans.o
 .rodata.DP1.10171.5730
                0x00000000        0x8 C:\Users\apsyvert\AppData\Local\Temp\cc8fH946.ltrans0.ltrans.o
 .rodata.DP2.10170.5729
                0x00000000        0x8 C:\Users\apsyvert\AppData\Local\Temp\cc8fH946.ltrans0.ltrans.o
 .rodata.DP3.10169.5728
                0x00000000        0x8 C:\Users\apsyvert\AppData\Local\Temp\cc8fH946.ltrans0.ltrans.o
 .rodata.lossth.10168.5727
                0x00000000        0x8 C:\Users\apsyvert\AppData\Local\Temp\cc8fH946.ltrans0.ltrans.o
 .rodata.P64800.10167.5725
                0x00000000        0x8 C:\Users\apsyvert\AppData\Local\Temp\cc8fH946.ltrans0.ltrans.o
 .rodata.sintbl.10183
                0x00000000      0x2e0 C:\Users\apsyvert\AppData\Local\Temp\cc8fH946.ltrans0.ltrans.o
 .rodata.sincof.10200
                0x00000000       0x30 C:\Users\apsyvert\AppData\Local\Temp\cc8fH946.ltrans0.ltrans.o
 .rodata.coscof.10198
                0x00000000       0x38 C:\Users\apsyvert\AppData\Local\Temp\cc8fH946.ltrans0.ltrans.o
 .rodata.PI180.10202.5720
                0x00000000        0x8 C:\Users\apsyvert\AppData\Local\Temp\cc8fH946.ltrans0.ltrans.o
 .rodata.lossth.10201.5718
                0x00000000        0x8 C:\Users\apsyvert\AppData\Local\Temp\cc8fH946.ltrans0.ltrans.o
 .rodata.P.10218
                0x00000000       0x20 C:\Users\apsyvert\AppData\Local\Temp\cc8fH946.ltrans0.ltrans.o
 .rodata.Q.10220
                0x00000000       0x18 C:\Users\apsyvert\AppData\Local\Temp\cc8fH946.ltrans0.ltrans.o
 .rodata.P.10252
                0x00000000       0x18 C:\Users\apsyvert\AppData\Local\Temp\cc8fH946.ltrans0.ltrans.o
 .rodata.Q.10253
                0x00000000       0x20 C:\Users\apsyvert\AppData\Local\Temp\cc8fH946.ltrans0.ltrans.o
 .rodata.DP1.10259.5712
                0x00000000        0x8 C:\Users\apsyvert\AppData\Local\Temp\cc8fH946.ltrans0.ltrans.o
 .rodata.DP2.10258.5711
                0x00000000        0x8 C:\Users\apsyvert\AppData\Local\Temp\cc8fH946.ltrans0.ltrans.o
 .rodata.DP3.10257.5710
                0x00000000        0x8 C:\Users\apsyvert\AppData\Local\Temp\cc8fH946.ltrans0.ltrans.o
 .rodata.lossth.10256.5708
                0x00000000        0x8 C:\Users\apsyvert\AppData\Local\Temp\cc8fH946.ltrans0.ltrans.o
 .rodata.P.10281
                0x00000000       0x18 C:\Users\apsyvert\AppData\Local\Temp\cc8fH946.ltrans0.ltrans.o
 .rodata.Q.10282
                0x00000000       0x20 C:\Users\apsyvert\AppData\Local\Temp\cc8fH946.ltrans0.ltrans.o
 .rodata.PI180.10285.5705
                0x00000000        0x8 C:\Users\apsyvert\AppData\Local\Temp\cc8fH946.ltrans0.ltrans.o
 .rodata.lossth.10284.5703
                0x00000000        0x8 C:\Users\apsyvert\AppData\Local\Temp\cc8fH946.ltrans0.ltrans.o
 .rodata.P.10297
                0x00000000       0x18 C:\Users\apsyvert\AppData\Local\Temp\cc8fH946.ltrans0.ltrans.o
 .rodata.Q.10299
                0x00000000       0x18 C:\Users\apsyvert\AppData\Local\Temp\cc8fH946.ltrans0.ltrans.o
 .rodata.LP.10316
                0x00000000       0x38 C:\Users\apsyvert\AppData\Local\Temp\cc8fH946.ltrans0.ltrans.o
 .rodata.LQ.10318
                0x00000000       0x30 C:\Users\apsyvert\AppData\Local\Temp\cc8fH946.ltrans0.ltrans.o
 .rodata.EP.10320
                0x00000000       0x18 C:\Users\apsyvert\AppData\Local\Temp\cc8fH946.ltrans0.ltrans.o
 .rodata.EQ.10321
                0x00000000       0x20 C:\Users\apsyvert\AppData\Local\Temp\cc8fH946.ltrans0.ltrans.o
 .rodata.coscof.10323
                0x00000000       0x38 C:\Users\apsyvert\AppData\Local\Temp\cc8fH946.ltrans0.ltrans.o
 .data.gpioEvents.5681
                0x00000000       0x10 C:\Users\apsyvert\AppData\Local\Temp\cc8fH946.ltrans0.ltrans.o
 .rodata.MSDAY.5540
                0x00000000        0x4 C:\Users\apsyvert\AppData\Local\Temp\cc8fH946.ltrans0.ltrans.o
 .rodata.YDAY.5539
                0x00000000        0x4 C:\Users\apsyvert\AppData\Local\Temp\cc8fH946.ltrans0.ltrans.o
 .rodata.LDAY.5538
                0x00000000        0x4 C:\Users\apsyvert\AppData\Local\Temp\cc8fH946.ltrans0.ltrans.o
 .rodata.FDAY.5537
                0x00000000        0x4 C:\Users\apsyvert\AppData\Local\Temp\cc8fH946.ltrans0.ltrans.o
 .rodata.BASE_DOW.5535
                0x00000000        0x4 C:\Users\apsyvert\AppData\Local\Temp\cc8fH946.ltrans0.ltrans.o
 .rodata.JSON_LIMIT_AMOUNT.5528
                0x00000000        0x4 C:\Users\apsyvert\AppData\Local\Temp\cc8fH946.ltrans0.ltrans.o
 .rodata.JSON_LIMITED_AMOUNT.5527
                0x00000000        0x4 C:\Users\apsyvert\AppData\Local\Temp\cc8fH946.ltrans0.ltrans.o
 .rodata.JSON_LIMIT_STRING_AMOUNT.5526
                0x00000000        0x4 C:\Users\apsyvert\AppData\Local\Temp\cc8fH946.ltrans0.ltrans.o
 .rodata.JSON_LIMITED_STRING_AMOUNT.5525
                0x00000000        0x4 C:\Users\apsyvert\AppData\Local\Temp\cc8fH946.ltrans0.ltrans.o
 .rodata.JSON_ITEMS_ON_LINE_OBJECT.5522
                0x00000000        0x4 C:\Users\apsyvert\AppData\Local\Temp\cc8fH946.ltrans0.ltrans.o
 .text          0x00000000        0x0 C:\Users\apsyvert\AppData\Local\Temp\cc8fH946.ltrans1.ltrans.o
 .data          0x00000000        0x0 C:\Users\apsyvert\AppData\Local\Temp\cc8fH946.ltrans1.ltrans.o
 .bss           0x00000000        0x0 C:\Users\apsyvert\AppData\Local\Temp\cc8fH946.ltrans1.ltrans.o
 .text          0x00000000        0x0 C:\Users\apsyvert\AppData\Local\Temp\cc8fH946.ltrans2.ltrans.o
 .data          0x00000000        0x0 C:\Users\apsyvert\AppData\Local\Temp\cc8fH946.ltrans2.ltrans.o
 .bss           0x00000000        0x0 C:\Users\apsyvert\AppData\Local\Temp\cc8fH946.ltrans2.ltrans.o
 .text          0x00000000        0x0 C:\Users\apsyvert\AppData\Local\Temp\cc8fH946.ltrans3.ltrans.o
 .data          0x00000000        0x0 C:\Users\apsyvert\AppData\Local\Temp\cc8fH946.ltrans3.ltrans.o
 .bss           0x00000000        0x0 C:\Users\apsyvert\AppData\Local\Temp\cc8fH946.ltrans3.ltrans.o
 .text.jsfGetEscapedString.4281
                0x00000000       0x80 C:\Users\apsyvert\AppData\Local\Temp\cc8fH946.ltrans3.ltrans.o
 .text.jsfPrintJSONForFunction.4242
                0x00000000       0x24 C:\Users\apsyvert\AppData\Local\Temp\cc8fH946.ltrans3.ltrans.o
 .text          0x00000000        0x0 C:\Users\apsyvert\AppData\Local\Temp\cc8fH946.ltrans4.ltrans.o
 .data          0x00000000        0x0 C:\Users\apsyvert\AppData\Local\Temp\cc8fH946.ltrans4.ltrans.o
 .bss           0x00000000        0x0 C:\Users\apsyvert\AppData\Local\Temp\cc8fH946.ltrans4.ltrans.o
 .text.jsvStringIteratorGetChar.15007
                0x00000000       0x2c C:\Users\apsyvert\AppData\Local\Temp\cc8fH946.ltrans4.ltrans.o
 .text.jsvStringIteratorHasChar.15018
                0x00000000       0x28 C:\Users\apsyvert\AppData\Local\Temp\cc8fH946.ltrans4.ltrans.o
 .text          0x00000000        0x0 C:\Users\apsyvert\AppData\Local\Temp\cc8fH946.ltrans5.ltrans.o
 .data          0x00000000        0x0 C:\Users\apsyvert\AppData\Local\Temp\cc8fH946.ltrans5.ltrans.o
 .bss           0x00000000        0x0 C:\Users\apsyvert\AppData\Local\Temp\cc8fH946.ltrans5.ltrans.o
 .text          0x00000000        0x0 C:\Users\apsyvert\AppData\Local\Temp\cc8fH946.ltrans6.ltrans.o
 .data          0x00000000        0x0 C:\Users\apsyvert\AppData\Local\Temp\cc8fH946.ltrans6.ltrans.o
 .bss           0x00000000        0x0 C:\Users\apsyvert\AppData\Local\Temp\cc8fH946.ltrans6.ltrans.o
 .text          0x00000000        0x0 C:\Users\apsyvert\AppData\Local\Temp\cc8fH946.ltrans7.ltrans.o
 .data          0x00000000        0x0 C:\Users\apsyvert\AppData\Local\Temp\cc8fH946.ltrans7.ltrans.o
 .bss           0x00000000        0x0 C:\Users\apsyvert\AppData\Local\Temp\cc8fH946.ltrans7.ltrans.o
 .text.delayTicks.12760
                0x00000000       0x34 C:\Users\apsyvert\AppData\Local\Temp\cc8fH946.ltrans7.ltrans.o
 .text.NVMHAL_Read.4235
                0x00000000       0x40 C:\Users\apsyvert\AppData\Local\Temp\cc8fH946.ltrans7.ltrans.o
 .text.NVMHAL_Checksum.4217
                0x00000000       0x88 C:\Users\apsyvert\AppData\Local\Temp\cc8fH946.ltrans7.ltrans.o
 .text          0x00000000        0x0 C:\Users\apsyvert\AppData\Local\Temp\cc8fH946.ltrans8.ltrans.o
 .data          0x00000000        0x0 C:\Users\apsyvert\AppData\Local\Temp\cc8fH946.ltrans8.ltrans.o
 .bss           0x00000000        0x0 C:\Users\apsyvert\AppData\Local\Temp\cc8fH946.ltrans8.ltrans.o
 .text.EMU_EnterEM3.4599
                0x00000000       0xbc C:\Users\apsyvert\AppData\Local\Temp\cc8fH946.ltrans8.ltrans.o
 .text.EMU_EnterEM4.4597
                0x00000000       0x50 C:\Users\apsyvert\AppData\Local\Temp\cc8fH946.ltrans8.ltrans.o
 .text.EMU_MemPwrDown.4594
                0x00000000       0x1c C:\Users\apsyvert\AppData\Local\Temp\cc8fH946.ltrans8.ltrans.o
 .text.EMU_EM23Init.4586
                0x00000000       0x34 C:\Users\apsyvert\AppData\Local\Temp\cc8fH946.ltrans8.ltrans.o
 .text.EMU_EM4Init.4574
                0x00000000       0x50 C:\Users\apsyvert\AppData\Local\Temp\cc8fH946.ltrans8.ltrans.o
 .text.EMU_BUPDInit.4553
                0x00000000       0xcc C:\Users\apsyvert\AppData\Local\Temp\cc8fH946.ltrans8.ltrans.o
 .text.EMU_BUThresholdSet.4549
                0x00000000       0x48 C:\Users\apsyvert\AppData\Local\Temp\cc8fH946.ltrans8.ltrans.o
 .text.EMU_BUThresRangeSet.4542
                0x00000000       0x4c C:\Users\apsyvert\AppData\Local\Temp\cc8fH946.ltrans8.ltrans.o
 .text.MSC_ExecConfigSet.4523
                0x00000000       0x6c C:\Users\apsyvert\AppData\Local\Temp\cc8fH946.ltrans8.ltrans.o
 .text.RTC_FreezeEnable.4470
                0x00000000       0x2c C:\Users\apsyvert\AppData\Local\Temp\cc8fH946.ltrans8.ltrans.o
 .text.RTC_Reset.4460
                0x00000000       0x34 C:\Users\apsyvert\AppData\Local\Temp\cc8fH946.ltrans8.ltrans.o
 .text.SYSTEM_GetCalibrationValue.4445
                0x00000000       0x54 C:\Users\apsyvert\AppData\Local\Temp\cc8fH946.ltrans8.ltrans.o
 .text.TIMER_EnableDTI.12246.4441
                0x00000000       0x38 C:\Users\apsyvert\AppData\Local\Temp\cc8fH946.ltrans8.ltrans.o
 .text.TIMER_GetDTIFault.12282.4438
                0x00000000       0x1c C:\Users\apsyvert\AppData\Local\Temp\cc8fH946.ltrans8.ltrans.o
 .text.TIMER_ClearDTIFault.12285.4434
                0x00000000       0x1c C:\Users\apsyvert\AppData\Local\Temp\cc8fH946.ltrans8.ltrans.o
 .text.TIMER_InitDTI.4354
                0x00000000      0x104 C:\Users\apsyvert\AppData\Local\Temp\cc8fH946.ltrans8.ltrans.o
 .text.TIMER_Reset.4321
                0x00000000       0xd4 C:\Users\apsyvert\AppData\Local\Temp\cc8fH946.ltrans8.ltrans.o
 .text.BUS_RegMaskedWrite.12374.4316
                0x00000000       0x28 C:\Users\apsyvert\AppData\Local\Temp\cc8fH946.ltrans8.ltrans.o
 .text.USART_BaudrateCalc.4304
                0x00000000      0x11c C:\Users\apsyvert\AppData\Local\Temp\cc8fH946.ltrans8.ltrans.o
 .text.USART_BaudrateGet.4301
                0x00000000       0x50 C:\Users\apsyvert\AppData\Local\Temp\cc8fH946.ltrans8.ltrans.o
 .text.USART_BaudrateSyncSet.4296
                0x00000000       0x74 C:\Users\apsyvert\AppData\Local\Temp\cc8fH946.ltrans8.ltrans.o
 .text.USART_InitSync.4284
                0x00000000       0xc8 C:\Users\apsyvert\AppData\Local\Temp\cc8fH946.ltrans8.ltrans.o
 .text.USART_InitIrDA.4251
                0x00000000       0x74 C:\Users\apsyvert\AppData\Local\Temp\cc8fH946.ltrans8.ltrans.o
 .text.USART_InitI2s.4215
                0x00000000       0x90 C:\Users\apsyvert\AppData\Local\Temp\cc8fH946.ltrans8.ltrans.o
 .text.USART_InitPrsTrigger.4203
                0x00000000       0x60 C:\Users\apsyvert\AppData\Local\Temp\cc8fH946.ltrans8.ltrans.o
 .text.USART_RxDouble.4194
                0x00000000       0x28 C:\Users\apsyvert\AppData\Local\Temp\cc8fH946.ltrans8.ltrans.o
 .text.USART_RxDoubleExt.4191
                0x00000000       0x24 C:\Users\apsyvert\AppData\Local\Temp\cc8fH946.ltrans8.ltrans.o
 .text.USART_RxExt.4188
                0x00000000       0x28 C:\Users\apsyvert\AppData\Local\Temp\cc8fH946.ltrans8.ltrans.o
 .text.USART_SpiTransfer.4184
                0x00000000       0x3c C:\Users\apsyvert\AppData\Local\Temp\cc8fH946.ltrans8.ltrans.o
 .text.USART_TxDouble.4176
                0x00000000       0x28 C:\Users\apsyvert\AppData\Local\Temp\cc8fH946.ltrans8.ltrans.o
 .text.USART_TxDoubleExt.4172
                0x00000000       0x28 C:\Users\apsyvert\AppData\Local\Temp\cc8fH946.ltrans8.ltrans.o
 .text.USART_TxExt.4139
                0x00000000       0x28 C:\Users\apsyvert\AppData\Local\Temp\cc8fH946.ltrans8.ltrans.o
 .text.NVIC_DisableIRQ.12687.4098
                0x00000000       0x34 C:\Users\apsyvert\AppData\Local\Temp\cc8fH946.ltrans8.ltrans.o
 .text.RTCDRV_Delay.4070
                0x00000000       0x80 C:\Users\apsyvert\AppData\Local\Temp\cc8fH946.ltrans8.ltrans.o
 .text.RTCDRV_FreeTimer.4067
                0x00000000       0x54 C:\Users\apsyvert\AppData\Local\Temp\cc8fH946.ltrans8.ltrans.o
 .text.RTCDRV_DeInit.4063
                0x00000000       0x40 C:\Users\apsyvert\AppData\Local\Temp\cc8fH946.ltrans8.ltrans.o
 .text.RTCDRV_IsRunning.4058
                0x00000000       0x7c C:\Users\apsyvert\AppData\Local\Temp\cc8fH946.ltrans8.ltrans.o
 .text.RTCDRV_StopTimer.4045
                0x00000000       0x68 C:\Users\apsyvert\AppData\Local\Temp\cc8fH946.ltrans8.ltrans.o
 .text.RTCDRV_TimeRemaining.4040
                0x00000000      0x14c C:\Users\apsyvert\AppData\Local\Temp\cc8fH946.ltrans8.ltrans.o
 .text.RTCDRV_GetWallClockTicks64.4034
                0x00000000       0x60 C:\Users\apsyvert\AppData\Local\Temp\cc8fH946.ltrans8.ltrans.o
 .text.RTCDRV_MsecsToTicks.4026
                0x00000000       0x40 C:\Users\apsyvert\AppData\Local\Temp\cc8fH946.ltrans8.ltrans.o
 .text.RTCDRV_SecsToTicks.4023
                0x00000000       0x48 C:\Users\apsyvert\AppData\Local\Temp\cc8fH946.ltrans8.ltrans.o
 .text.RTCDRV_TicksToMsec.4020
                0x00000000       0x70 C:\Users\apsyvert\AppData\Local\Temp\cc8fH946.ltrans8.ltrans.o
 .text.RTCDRV_TicksToSec.4013
                0x00000000       0x70 C:\Users\apsyvert\AppData\Local\Temp\cc8fH946.ltrans8.ltrans.o
 .text          0x00000000        0x0 C:\Users\apsyvert\AppData\Local\Temp\cc8fH946.ltrans9.ltrans.o
 .data          0x00000000        0x0 C:\Users\apsyvert\AppData\Local\Temp\cc8fH946.ltrans9.ltrans.o
 .bss           0x00000000        0x0 C:\Users\apsyvert\AppData\Local\Temp\cc8fH946.ltrans9.ltrans.o
 .text.SystemHFXOClockSet.4222
                0x00000000       0x2c C:\Users\apsyvert\AppData\Local\Temp\cc8fH946.ltrans9.ltrans.o
 .text.SystemLFXOClockSet.4210
                0x00000000       0x2c C:\Users\apsyvert\AppData\Local\Temp\cc8fH946.ltrans9.ltrans.o
 .text.GPIO_EM4SetPinRetention.11366.4197
                0x00000000       0x40 C:\Users\apsyvert\AppData\Local\Temp\cc8fH946.ltrans9.ltrans.o
 .text.GPIO_DbgLocationSet.4186
                0x00000000       0x2c C:\Users\apsyvert\AppData\Local\Temp\cc8fH946.ltrans9.ltrans.o
 .text.GPIO_DriveModeSet.4180
                0x00000000       0x6c C:\Users\apsyvert\AppData\Local\Temp\cc8fH946.ltrans9.ltrans.o
 .text.GPIO_EM4EnablePinWakeup.4158
                0x00000000       0x58 C:\Users\apsyvert\AppData\Local\Temp\cc8fH946.ltrans9.ltrans.o
 .text.CMU_Log2ToDiv.11454.4143
                0x00000000       0x1c C:\Users\apsyvert\AppData\Local\Temp\cc8fH946.ltrans9.ltrans.o
 .text.CMU_AUXHFRCOBandGet.4120
                0x00000000       0x20 C:\Users\apsyvert\AppData\Local\Temp\cc8fH946.ltrans9.ltrans.o
 .text.CMU_AUXHFRCOBandSet.4115
                0x00000000       0xac C:\Users\apsyvert\AppData\Local\Temp\cc8fH946.ltrans9.ltrans.o
 .text.CMU_Calibrate.4111
                0x00000000       0x88 C:\Users\apsyvert\AppData\Local\Temp\cc8fH946.ltrans9.ltrans.o
 .text.CMU_CalibrateConfig.4106
                0x00000000       0xd0 C:\Users\apsyvert\AppData\Local\Temp\cc8fH946.ltrans9.ltrans.o
 .text.CMU_CalibrateCountGet.4104
                0x00000000       0x34 C:\Users\apsyvert\AppData\Local\Temp\cc8fH946.ltrans9.ltrans.o
 .text.CMU_ClockDivGet.4101
                0x00000000      0x170 C:\Users\apsyvert\AppData\Local\Temp\cc8fH946.ltrans9.ltrans.o
 .text.CMU_FreezeEnable.4075
                0x00000000       0x34 C:\Users\apsyvert\AppData\Local\Temp\cc8fH946.ltrans9.ltrans.o
 .text.CMU_HFRCOBandGet.4073
                0x00000000       0x20 C:\Users\apsyvert\AppData\Local\Temp\cc8fH946.ltrans9.ltrans.o
 .text.CMU_HFRCOBandSet.4068
                0x00000000       0xc4 C:\Users\apsyvert\AppData\Local\Temp\cc8fH946.ltrans9.ltrans.o
 .text.CMU_HFRCOStartupDelayGet.4066
                0x00000000       0x1c C:\Users\apsyvert\AppData\Local\Temp\cc8fH946.ltrans9.ltrans.o
 .text.CMU_HFRCOStartupDelaySet.4063
                0x00000000       0x30 C:\Users\apsyvert\AppData\Local\Temp\cc8fH946.ltrans9.ltrans.o
 .text.CMU_LCDClkFDIVGet.4061
                0x00000000       0x1c C:\Users\apsyvert\AppData\Local\Temp\cc8fH946.ltrans9.ltrans.o
 .text.CMU_LCDClkFDIVSet.4058
                0x00000000       0x3c C:\Users\apsyvert\AppData\Local\Temp\cc8fH946.ltrans9.ltrans.o
 .text.CMU_OscillatorTuningGet.4050
                0x00000000       0x50 C:\Users\apsyvert\AppData\Local\Temp\cc8fH946.ltrans9.ltrans.o
 .text.CMU_OscillatorTuningSet.4044
                0x00000000       0x70 C:\Users\apsyvert\AppData\Local\Temp\cc8fH946.ltrans9.ltrans.o
 .text.CMU_PCNTClockExternalGet.4041
                0x00000000       0x5c C:\Users\apsyvert\AppData\Local\Temp\cc8fH946.ltrans9.ltrans.o
 .text.CMU_PCNTClockExternalSet.4036
                0x00000000       0x34 C:\Users\apsyvert\AppData\Local\Temp\cc8fH946.ltrans9.ltrans.o
 .text.BUS_RegBitWrite.11857
                0x00000000       0x2c C:\Users\apsyvert\AppData\Local\Temp\cc8fH946.ltrans9.ltrans.o
 .text.EMU_BUPinEnable.11864
                0x00000000       0x20 C:\Users\apsyvert\AppData\Local\Temp\cc8fH946.ltrans9.ltrans.o
 .text.EMU_Unlock.11868
                0x00000000       0x18 C:\Users\apsyvert\AppData\Local\Temp\cc8fH946.ltrans9.ltrans.o
 .text          0x00000000        0x0 C:\Users\apsyvert\AppData\Local\Temp\cc8fH946.ltrans10.ltrans.o
 .data          0x00000000        0x0 C:\Users\apsyvert\AppData\Local\Temp\cc8fH946.ltrans10.ltrans.o
 .bss           0x00000000        0x0 C:\Users\apsyvert\AppData\Local\Temp\cc8fH946.ltrans10.ltrans.o
 .text.cos      0x00000000      0x2e8 C:\Users\apsyvert\AppData\Local\Temp\cc8fH946.ltrans10.ltrans.o
 .text.radian.4327
                0x00000000       0x80 C:\Users\apsyvert\AppData\Local\Temp\cc8fH946.ltrans10.ltrans.o
 .text.sincos.4320
                0x00000000      0x2d8 C:\Users\apsyvert\AppData\Local\Temp\cc8fH946.ltrans10.ltrans.o
 .text.sindg.4317
                0x00000000      0x218 C:\Users\apsyvert\AppData\Local\Temp\cc8fH946.ltrans10.ltrans.o
 .text.cosdg.4313
                0x00000000      0x220 C:\Users\apsyvert\AppData\Local\Temp\cc8fH946.ltrans10.ltrans.o
 .text.sinh     0x00000000      0x270 C:\Users\apsyvert\AppData\Local\Temp\cc8fH946.ltrans10.ltrans.o
 .text.tan      0x00000000       0x7c C:\Users\apsyvert\AppData\Local\Temp\cc8fH946.ltrans10.ltrans.o
 .text.cot.4299
                0x00000000       0x50 C:\Users\apsyvert\AppData\Local\Temp\cc8fH946.ltrans10.ltrans.o
 .text.tancot.10232.4294
                0x00000000      0x2c0 C:\Users\apsyvert\AppData\Local\Temp\cc8fH946.ltrans10.ltrans.o
 .text.tandg.4291
                0x00000000       0x24 C:\Users\apsyvert\AppData\Local\Temp\cc8fH946.ltrans10.ltrans.o
 .text.cotdg.4288
                0x00000000       0x24 C:\Users\apsyvert\AppData\Local\Temp\cc8fH946.ltrans10.ltrans.o
 .text.tancot.10263.4282
                0x00000000      0x2c0 C:\Users\apsyvert\AppData\Local\Temp\cc8fH946.ltrans10.ltrans.o
 .text.tanh     0x00000000      0x1cc C:\Users\apsyvert\AppData\Local\Temp\cc8fH946.ltrans10.ltrans.o
 .text.log1p    0x00000000      0x120 C:\Users\apsyvert\AppData\Local\Temp\cc8fH946.ltrans10.ltrans.o
 .text.expm1.4272
                0x00000000      0x14c C:\Users\apsyvert\AppData\Local\Temp\cc8fH946.ltrans10.ltrans.o
 .text.cosm1.4268
                0x00000000       0xe8 C:\Users\apsyvert\AppData\Local\Temp\cc8fH946.ltrans10.ltrans.o
 .text.jshKill.4090
                0x00000000        0xc C:\Users\apsyvert\AppData\Local\Temp\cc8fH946.ltrans10.ltrans.o
 .text.jshIsUSBSERIALConnected.4082
                0x00000000       0x10 C:\Users\apsyvert\AppData\Local\Temp\cc8fH946.ltrans10.ltrans.o
 .text          0x00000000        0x0 C:\Users\apsyvert\AppData\Local\Temp\cc8fH946.ltrans11.ltrans.o
 .data          0x00000000        0x0 C:\Users\apsyvert\AppData\Local\Temp\cc8fH946.ltrans11.ltrans.o
 .bss           0x00000000        0x0 C:\Users\apsyvert\AppData\Local\Temp\cc8fH946.ltrans11.ltrans.o
 .text.fabs     0x00000000       0x54 C:\Users\apsyvert\AppData\Local\Temp\cc8fH946.ltrans11.ltrans.o
 .text.isnan    0x00000000       0x44 C:\Users\apsyvert\AppData\Local\Temp\cc8fH946.ltrans11.ltrans.o
 .text.log10    0x00000000      0x290 C:\Users\apsyvert\AppData\Local\Temp\cc8fH946.ltrans11.ltrans.o
 .text.log2     0x00000000      0x388 C:\Users\apsyvert\AppData\Local\Temp\cc8fH946.ltrans11.ltrans.o
 .rodata        0x00000000        0xc C:\Users\apsyvert\AppData\Local\Temp\cc8fH946.ltrans11.ltrans.o
 .text.pow      0x00000000      0xcb8 C:\Users\apsyvert\AppData\Local\Temp\cc8fH946.ltrans11.ltrans.o
 .text.reduc.10080.4026
                0x00000000       0x44 C:\Users\apsyvert\AppData\Local\Temp\cc8fH946.ltrans11.ltrans.o
 .text.powi.4021
                0x00000000      0x360 C:\Users\apsyvert\AppData\Local\Temp\cc8fH946.ltrans11.ltrans.o
 .text.round    0x00000000       0xcc C:\Users\apsyvert\AppData\Local\Temp\cc8fH946.ltrans11.ltrans.o
 .text.sprec.4015
                0x00000000       0x10 C:\Users\apsyvert\AppData\Local\Temp\cc8fH946.ltrans11.ltrans.o
 .text.dprec.4013
                0x00000000       0x10 C:\Users\apsyvert\AppData\Local\Temp\cc8fH946.ltrans11.ltrans.o
 .text.ldprec.4010
                0x00000000       0x10 C:\Users\apsyvert\AppData\Local\Temp\cc8fH946.ltrans11.ltrans.o
 .text          0x00000000        0x0 C:\Users\apsyvert\AppData\Local\Temp\cc8fH946.ltrans12.ltrans.o
 .data          0x00000000        0x0 C:\Users\apsyvert\AppData\Local\Temp\cc8fH946.ltrans12.ltrans.o
 .bss           0x00000000        0x0 C:\Users\apsyvert\AppData\Local\Temp\cc8fH946.ltrans12.ltrans.o
 .text.asinh    0x00000000      0x1d8 C:\Users\apsyvert\AppData\Local\Temp\cc8fH946.ltrans12.ltrans.o
 .text.atanh    0x00000000      0x1d0 C:\Users\apsyvert\AppData\Local\Temp\cc8fH946.ltrans12.ltrans.o
 .text.cbrt     0x00000000      0x310 C:\Users\apsyvert\AppData\Local\Temp\cc8fH946.ltrans12.ltrans.o
 .text.chbevl.4154
                0x00000000       0xbc C:\Users\apsyvert\AppData\Local\Temp\cc8fH946.ltrans12.ltrans.o
 .text.clog.4150
                0x00000000       0x48 C:\Users\apsyvert\AppData\Local\Temp\cc8fH946.ltrans12.ltrans.o
 .text.cexp.4146
                0x00000000       0x68 C:\Users\apsyvert\AppData\Local\Temp\cc8fH946.ltrans12.ltrans.o
 .text.csin.4142
                0x00000000       0x60 C:\Users\apsyvert\AppData\Local\Temp\cc8fH946.ltrans12.ltrans.o
 .text.cchsh.9679.4137
                0x00000000       0xc0 C:\Users\apsyvert\AppData\Local\Temp\cc8fH946.ltrans12.ltrans.o
 .text.ccos.4133
                0x00000000       0x70 C:\Users\apsyvert\AppData\Local\Temp\cc8fH946.ltrans12.ltrans.o
 .text.ctan.4129
                0x00000000      0x124 C:\Users\apsyvert\AppData\Local\Temp\cc8fH946.ltrans12.ltrans.o
 .text.ccot.4125
                0x00000000      0x12c C:\Users\apsyvert\AppData\Local\Temp\cc8fH946.ltrans12.ltrans.o
 .text.redupi.9692.4122
                0x00000000      0x120 C:\Users\apsyvert\AppData\Local\Temp\cc8fH946.ltrans12.ltrans.o
 .text.ctans.9696.4117
                0x00000000      0x25c C:\Users\apsyvert\AppData\Local\Temp\cc8fH946.ltrans12.ltrans.o
 .text.casin.4113
                0x00000000      0x1c0 C:\Users\apsyvert\AppData\Local\Temp\cc8fH946.ltrans12.ltrans.o
 .text.cacos.4109
                0x00000000       0x48 C:\Users\apsyvert\AppData\Local\Temp\cc8fH946.ltrans12.ltrans.o
 .text.catan.4105
                0x00000000      0x1ec C:\Users\apsyvert\AppData\Local\Temp\cc8fH946.ltrans12.ltrans.o
 .text.csinh.4101
                0x00000000       0x78 C:\Users\apsyvert\AppData\Local\Temp\cc8fH946.ltrans12.ltrans.o
 .text.casinh.4097
                0x00000000       0x70 C:\Users\apsyvert\AppData\Local\Temp\cc8fH946.ltrans12.ltrans.o
 .text.ccosh.4093
                0x00000000       0x78 C:\Users\apsyvert\AppData\Local\Temp\cc8fH946.ltrans12.ltrans.o
 .text.cacosh.4089
                0x00000000       0x40 C:\Users\apsyvert\AppData\Local\Temp\cc8fH946.ltrans12.ltrans.o
 .text.ctanh.4085
                0x00000000       0xd0 C:\Users\apsyvert\AppData\Local\Temp\cc8fH946.ltrans12.ltrans.o
 .text.catanh.4081
                0x00000000       0x70 C:\Users\apsyvert\AppData\Local\Temp\cc8fH946.ltrans12.ltrans.o
 .text.cpow.4076
                0x00000000      0x158 C:\Users\apsyvert\AppData\Local\Temp\cc8fH946.ltrans12.ltrans.o
 .text.cadd.4071
                0x00000000       0x40 C:\Users\apsyvert\AppData\Local\Temp\cc8fH946.ltrans12.ltrans.o
 .text.csub.4066
                0x00000000       0x40 C:\Users\apsyvert\AppData\Local\Temp\cc8fH946.ltrans12.ltrans.o
 .text.cmul.4061
                0x00000000       0x8c C:\Users\apsyvert\AppData\Local\Temp\cc8fH946.ltrans12.ltrans.o
 .text.cdiv.4056
                0x00000000      0x188 C:\Users\apsyvert\AppData\Local\Temp\cc8fH946.ltrans12.ltrans.o
 .text.cmov.4052
                0x00000000       0x34 C:\Users\apsyvert\AppData\Local\Temp\cc8fH946.ltrans12.ltrans.o
 .text.cneg.4049
                0x00000000       0x2c C:\Users\apsyvert\AppData\Local\Temp\cc8fH946.ltrans12.ltrans.o
 .text.cabs.4046
                0x00000000      0x214 C:\Users\apsyvert\AppData\Local\Temp\cc8fH946.ltrans12.ltrans.o
 .text.csqrt.4037
                0x00000000      0x278 C:\Users\apsyvert\AppData\Local\Temp\cc8fH946.ltrans12.ltrans.o
 .text.hypot    0x00000000       0x38 C:\Users\apsyvert\AppData\Local\Temp\cc8fH946.ltrans12.ltrans.o
 .text.cosh     0x00000000      0x150 C:\Users\apsyvert\AppData\Local\Temp\cc8fH946.ltrans12.ltrans.o
 .text.ranwh.9872.4026
                0x00000000      0x124 C:\Users\apsyvert\AppData\Local\Temp\cc8fH946.ltrans12.ltrans.o
 .text.drand.4022
                0x00000000      0x130 C:\Users\apsyvert\AppData\Local\Temp\cc8fH946.ltrans12.ltrans.o
 .text.exp10    0x00000000      0x1d8 C:\Users\apsyvert\AppData\Local\Temp\cc8fH946.ltrans12.ltrans.o
 .text.exp2     0x00000000      0x16c C:\Users\apsyvert\AppData\Local\Temp\cc8fH946.ltrans12.ltrans.o
 .text          0x00000000        0x0 C:\Users\apsyvert\AppData\Local\Temp\cc8fH946.ltrans13.ltrans.o
 .data          0x00000000        0x0 C:\Users\apsyvert\AppData\Local\Temp\cc8fH946.ltrans13.ltrans.o
 .bss           0x00000000        0x0 C:\Users\apsyvert\AppData\Local\Temp\cc8fH946.ltrans13.ltrans.o
 .text.acosh    0x00000000      0x170 C:\Users\apsyvert\AppData\Local\Temp\cc8fH946.ltrans13.ltrans.o
 .text          0x00000000        0x0 C:\Users\apsyvert\AppData\Local\Temp\cc8fH946.ltrans14.ltrans.o
 .data          0x00000000        0x0 C:\Users\apsyvert\AppData\Local\Temp\cc8fH946.ltrans14.ltrans.o
 .bss           0x00000000        0x0 C:\Users\apsyvert\AppData\Local\Temp\cc8fH946.ltrans14.ltrans.o
 .text.jstPinPWM.4499
                0x00000000      0x238 C:\Users\apsyvert\AppData\Local\Temp\cc8fH946.ltrans14.ltrans.o
 .text.jstExecuteFn.4495
                0x00000000       0x40 C:\Users\apsyvert\AppData\Local\Temp\cc8fH946.ltrans14.ltrans.o
 .text.jstStopExecuteFn.4488
                0x00000000       0x20 C:\Users\apsyvert\AppData\Local\Temp\cc8fH946.ltrans14.ltrans.o
 .text.jsspiDumpSPIInfo.4422
                0x00000000       0x44 C:\Users\apsyvert\AppData\Local\Temp\cc8fH946.ltrans14.ltrans.o
 .text.jsspiSend.4379
                0x00000000      0x114 C:\Users\apsyvert\AppData\Local\Temp\cc8fH946.ltrans14.ltrans.o
 .text          0x00000000        0x0 C:\Users\apsyvert\AppData\Local\Temp\cc8fH946.ltrans15.ltrans.o
 .data          0x00000000        0x0 C:\Users\apsyvert\AppData\Local\Temp\cc8fH946.ltrans15.ltrans.o
 .bss           0x00000000        0x0 C:\Users\apsyvert\AppData\Local\Temp\cc8fH946.ltrans15.ltrans.o
 .text.jshGetDeviceToTransmit.4223
                0x00000000       0x3c C:\Users\apsyvert\AppData\Local\Temp\cc8fH946.ltrans15.ltrans.o
 .text.jshTransmitFlush.4218
                0x00000000       0x20 C:\Users\apsyvert\AppData\Local\Temp\cc8fH946.ltrans15.ltrans.o
 .text.jshTransmitClearDevice.4215
                0x00000000       0x20 C:\Users\apsyvert\AppData\Local\Temp\cc8fH946.ltrans15.ltrans.o
 .text.jshTransmitMove.4211
                0x00000000       0x80 C:\Users\apsyvert\AppData\Local\Temp\cc8fH946.ltrans15.ltrans.o
 .text.jshHasEventSpaceForChars.4171
                0x00000000       0x3c C:\Users\apsyvert\AppData\Local\Temp\cc8fH946.ltrans15.ltrans.o
 .text.jshGetDeviceObject.4158
                0x00000000       0x3c C:\Users\apsyvert\AppData\Local\Temp\cc8fH946.ltrans15.ltrans.o
 .text.jshSetFlowControlEnabled.4154
                0x00000000       0x58 C:\Users\apsyvert\AppData\Local\Temp\cc8fH946.ltrans15.ltrans.o
 .text.jstExecuteTaskChecker.8157
                0x00000000       0x38 C:\Users\apsyvert\AppData\Local\Temp\cc8fH946.ltrans15.ltrans.o
 .text          0x00000000        0x0 C:\Users\apsyvert\AppData\Local\Temp\cc8fH946.ltrans16.ltrans.o
 .data          0x00000000        0x0 C:\Users\apsyvert\AppData\Local\Temp\cc8fH946.ltrans16.ltrans.o
 .bss           0x00000000        0x0 C:\Users\apsyvert\AppData\Local\Temp\cc8fH946.ltrans16.ltrans.o
 .text.jsiObjectHasCallbacks.4122
                0x00000000       0x48 C:\Users\apsyvert\AppData\Local\Temp\cc8fH946.ltrans16.ltrans.o
 .text.jsiHasTimers.4095
                0x00000000       0x54 C:\Users\apsyvert\AppData\Local\Temp\cc8fH946.ltrans16.ltrans.o
 .text          0x00000000        0x0 C:\Users\apsyvert\AppData\Local\Temp\cc8fH946.ltrans17.ltrans.o
 .data          0x00000000        0x0 C:\Users\apsyvert\AppData\Local\Temp\cc8fH946.ltrans17.ltrans.o
 .bss           0x00000000        0x0 C:\Users\apsyvert\AppData\Local\Temp\cc8fH946.ltrans17.ltrans.o
 .text          0x00000000        0x0 C:\Users\apsyvert\AppData\Local\Temp\cc8fH946.ltrans18.ltrans.o
 .data          0x00000000        0x0 C:\Users\apsyvert\AppData\Local\Temp\cc8fH946.ltrans18.ltrans.o
 .bss           0x00000000        0x0 C:\Users\apsyvert\AppData\Local\Temp\cc8fH946.ltrans18.ltrans.o
 .text.jspEvaluate.4328
                0x00000000       0x40 C:\Users\apsyvert\AppData\Local\Temp\cc8fH946.ltrans18.ltrans.o
 .text.jshGetPinFunctionFromDevice.4278
                0x00000000       0xb8 C:\Users\apsyvert\AppData\Local\Temp\cc8fH946.ltrans18.ltrans.o
 .text.jshGetPinFunctionForPin.4274
                0x00000000       0x74 C:\Users\apsyvert\AppData\Local\Temp\cc8fH946.ltrans18.ltrans.o
 .text.jshFindPinForFunction.4270
                0x00000000       0xf0 C:\Users\apsyvert\AppData\Local\Temp\cc8fH946.ltrans18.ltrans.o
 .text.jshPrintCapablePins.4253
                0x00000000       0xfc C:\Users\apsyvert\AppData\Local\Temp\cc8fH946.ltrans18.ltrans.o
 .text.jsiConsolePrintPosition
                0x00000000       0x20 C:\Users\apsyvert\AppData\Local\Temp\cc8fH946.ltrans18.ltrans.o
 .text          0x00000000        0x0 C:\Users\apsyvert\AppData\Local\Temp\cc8fH946.ltrans19.ltrans.o
 .data          0x00000000        0x0 C:\Users\apsyvert\AppData\Local\Temp\cc8fH946.ltrans19.ltrans.o
 .bss           0x00000000        0x0 C:\Users\apsyvert\AppData\Local\Temp\cc8fH946.ltrans19.ltrans.o
 .text          0x00000000        0x0 C:\Users\apsyvert\AppData\Local\Temp\cc8fH946.ltrans20.ltrans.o
 .data          0x00000000        0x0 C:\Users\apsyvert\AppData\Local\Temp\cc8fH946.ltrans20.ltrans.o
 .bss           0x00000000        0x0 C:\Users\apsyvert\AppData\Local\Temp\cc8fH946.ltrans20.ltrans.o
 .text          0x00000000        0x0 C:\Users\apsyvert\AppData\Local\Temp\cc8fH946.ltrans21.ltrans.o
 .data          0x00000000        0x0 C:\Users\apsyvert\AppData\Local\Temp\cc8fH946.ltrans21.ltrans.o
 .bss           0x00000000        0x0 C:\Users\apsyvert\AppData\Local\Temp\cc8fH946.ltrans21.ltrans.o
 .text.jspCallNamedFunction.4068
                0x00000000       0x50 C:\Users\apsyvert\AppData\Local\Temp\cc8fH946.ltrans21.ltrans.o
 .text          0x00000000        0x0 C:\Users\apsyvert\AppData\Local\Temp\cc8fH946.ltrans22.ltrans.o
 .data          0x00000000        0x0 C:\Users\apsyvert\AppData\Local\Temp\cc8fH946.ltrans22.ltrans.o
 .bss           0x00000000        0x0 C:\Users\apsyvert\AppData\Local\Temp\cc8fH946.ltrans22.ltrans.o
 .text.jsWarnAt.4278
                0x00000000       0x4c C:\Users\apsyvert\AppData\Local\Temp\cc8fH946.ltrans22.ltrans.o
 .text.espruino_snprintf_cb.4222
                0x00000000       0x50 C:\Users\apsyvert\AppData\Local\Temp\cc8fH946.ltrans22.ltrans.o
 .text.espruino_snprintf.4217
                0x00000000       0x64 C:\Users\apsyvert\AppData\Local\Temp\cc8fH946.ltrans22.ltrans.o
 .text          0x00000000        0x0 C:\Users\apsyvert\AppData\Local\Temp\cc8fH946.ltrans23.ltrans.o
 .data          0x00000000        0x0 C:\Users\apsyvert\AppData\Local\Temp\cc8fH946.ltrans23.ltrans.o
 .bss           0x00000000        0x0 C:\Users\apsyvert\AppData\Local\Temp\cc8fH946.ltrans23.ltrans.o
 .text.isNumeric.5946.4115
                0x00000000       0x30 C:\Users\apsyvert\AppData\Local\Temp\cc8fH946.ltrans23.ltrans.o
 .text.isAlpha.5949.4112
                0x00000000       0x40 C:\Users\apsyvert\AppData\Local\Temp\cc8fH946.ltrans23.ltrans.o
 .text.isIDString.4039
                0x00000000       0x6c C:\Users\apsyvert\AppData\Local\Temp\cc8fH946.ltrans23.ltrans.o
 .text          0x00000000        0x0 C:\Users\apsyvert\AppData\Local\Temp\cc8fH946.ltrans24.ltrans.o
 .data          0x00000000        0x0 C:\Users\apsyvert\AppData\Local\Temp\cc8fH946.ltrans24.ltrans.o
 .bss           0x00000000        0x0 C:\Users\apsyvert\AppData\Local\Temp\cc8fH946.ltrans24.ltrans.o
 .text.jsvNewArrayBufferWithPtr.4179
                0x00000000       0x74 C:\Users\apsyvert\AppData\Local\Temp\cc8fH946.ltrans24.ltrans.o
 .text.jsvMalloc.4176
                0x00000000       0x60 C:\Users\apsyvert\AppData\Local\Temp\cc8fH946.ltrans24.ltrans.o
 .text.jsvFree.4173
                0x00000000       0x1c C:\Users\apsyvert\AppData\Local\Temp\cc8fH946.ltrans24.ltrans.o
 .text          0x00000000        0x0 C:\Users\apsyvert\AppData\Local\Temp\cc8fH946.ltrans25.ltrans.o
 .data          0x00000000        0x0 C:\Users\apsyvert\AppData\Local\Temp\cc8fH946.ltrans25.ltrans.o
 .bss           0x00000000        0x0 C:\Users\apsyvert\AppData\Local\Temp\cc8fH946.ltrans25.ltrans.o
 .text.jsvGetFirstName.4151
                0x00000000       0x58 C:\Users\apsyvert\AppData\Local\Temp\cc8fH946.ltrans25.ltrans.o
 .text          0x00000000        0x0 C:\Users\apsyvert\AppData\Local\Temp\cc8fH946.ltrans26.ltrans.o
 .data          0x00000000        0x0 C:\Users\apsyvert\AppData\Local\Temp\cc8fH946.ltrans26.ltrans.o
 .bss           0x00000000        0x0 C:\Users\apsyvert\AppData\Local\Temp\cc8fH946.ltrans26.ltrans.o
 .text.jsvIsStringEqualAndUnLock.4149
                0x00000000       0x28 C:\Users\apsyvert\AppData\Local\Temp\cc8fH946.ltrans26.ltrans.o
 .text          0x00000000        0x0 C:\Users\apsyvert\AppData\Local\Temp\cc8fH946.ltrans27.ltrans.o
 .data          0x00000000        0x0 C:\Users\apsyvert\AppData\Local\Temp\cc8fH946.ltrans27.ltrans.o
 .bss           0x00000000        0x0 C:\Users\apsyvert\AppData\Local\Temp\cc8fH946.ltrans27.ltrans.o
 .text.jsvGetStringChars.4215
                0x00000000       0xac C:\Users\apsyvert\AppData\Local\Temp\cc8fH946.ltrans27.ltrans.o
 .text.jsvSetString.4210
                0x00000000       0xa0 C:\Users\apsyvert\AppData\Local\Temp\cc8fH946.ltrans27.ltrans.o
 .text.jsvGetFlatStringFromPointer
                0x00000000       0x44 C:\Users\apsyvert\AppData\Local\Temp\cc8fH946.ltrans27.ltrans.o
 .text          0x00000000        0x0 C:\Users\apsyvert\AppData\Local\Temp\cc8fH946.ltrans28.ltrans.o
 .data          0x00000000        0x0 C:\Users\apsyvert\AppData\Local\Temp\cc8fH946.ltrans28.ltrans.o
 .bss           0x00000000        0x0 C:\Users\apsyvert\AppData\Local\Temp\cc8fH946.ltrans28.ltrans.o
 .text.jsvIsEqual.4073
                0x00000000       0x54 C:\Users\apsyvert\AppData\Local\Temp\cc8fH946.ltrans28.ltrans.o
 .text          0x00000000        0x0 C:\Users\apsyvert\AppData\Local\Temp\cc8fH946.ltrans29.ltrans.o
 .data          0x00000000        0x0 C:\Users\apsyvert\AppData\Local\Temp\cc8fH946.ltrans29.ltrans.o
 .bss           0x00000000        0x0 C:\Users\apsyvert\AppData\Local\Temp\cc8fH946.ltrans29.ltrans.o
 .text.jsvSetMaxVarsUsed.4113
                0x00000000       0x34 C:\Users\apsyvert\AppData\Local\Temp\cc8fH946.ltrans29.ltrans.o
 .text.jsvSetMemoryTotal.4088
                0x00000000       0x24 C:\Users\apsyvert\AppData\Local\Temp\cc8fH946.ltrans29.ltrans.o
 .text.jsvIsMemoryFull
                0x00000000       0x20 C:\Users\apsyvert\AppData\Local\Temp\cc8fH946.ltrans29.ltrans.o
 .text.jsvShowAllocated.4081
                0x00000000       0x5c C:\Users\apsyvert\AppData\Local\Temp\cc8fH946.ltrans29.ltrans.o
 .text          0x00000000        0x0 C:\Users\apsyvert\AppData\Local\Temp\cc8fH946.ltrans30.ltrans.o
 .data          0x00000000        0x0 C:\Users\apsyvert\AppData\Local\Temp\cc8fH946.ltrans30.ltrans.o
 .bss           0x00000000        0x0 C:\Users\apsyvert\AppData\Local\Temp\cc8fH946.ltrans30.ltrans.o
 .text.jslSeekTo.4136
                0x00000000       0x5c C:\Users\apsyvert\AppData\Local\Temp\cc8fH946.ltrans30.ltrans.o
 .text.jslReset.4129
                0x00000000       0x18 C:\Users\apsyvert\AppData\Local\Temp\cc8fH946.ltrans30.ltrans.o
 .text.jslGetTokenLength.4113
                0x00000000       0x1c C:\Users\apsyvert\AppData\Local\Temp\cc8fH946.ltrans30.ltrans.o
 .data          0x00000000        0x0 c:/siliconlabs/simplicitystudio/v3/developer/toolchains/gnu_arm/4.8_2013q4/bin/../lib/gcc/arm-none-eabi/4.8.3/armv7-m\libgcc.a(_arm_addsubdf3.o)
 .bss           0x00000000        0x0 c:/siliconlabs/simplicitystudio/v3/developer/toolchains/gnu_arm/4.8_2013q4/bin/../lib/gcc/arm-none-eabi/4.8.3/armv7-m\libgcc.a(_arm_addsubdf3.o)
 .data          0x00000000        0x0 c:/siliconlabs/simplicitystudio/v3/developer/toolchains/gnu_arm/4.8_2013q4/bin/../lib/gcc/arm-none-eabi/4.8.3/armv7-m\libgcc.a(_arm_muldivdf3.o)
 .bss           0x00000000        0x0 c:/siliconlabs/simplicitystudio/v3/developer/toolchains/gnu_arm/4.8_2013q4/bin/../lib/gcc/arm-none-eabi/4.8.3/armv7-m\libgcc.a(_arm_muldivdf3.o)
 .data          0x00000000        0x0 c:/siliconlabs/simplicitystudio/v3/developer/toolchains/gnu_arm/4.8_2013q4/bin/../lib/gcc/arm-none-eabi/4.8.3/armv7-m\libgcc.a(_arm_cmpdf2.o)
 .bss           0x00000000        0x0 c:/siliconlabs/simplicitystudio/v3/developer/toolchains/gnu_arm/4.8_2013q4/bin/../lib/gcc/arm-none-eabi/4.8.3/armv7-m\libgcc.a(_arm_cmpdf2.o)
 .data          0x00000000        0x0 c:/siliconlabs/simplicitystudio/v3/developer/toolchains/gnu_arm/4.8_2013q4/bin/../lib/gcc/arm-none-eabi/4.8.3/armv7-m\libgcc.a(_arm_unorddf2.o)
 .bss           0x00000000        0x0 c:/siliconlabs/simplicitystudio/v3/developer/toolchains/gnu_arm/4.8_2013q4/bin/../lib/gcc/arm-none-eabi/4.8.3/armv7-m\libgcc.a(_arm_unorddf2.o)
 .data          0x00000000        0x0 c:/siliconlabs/simplicitystudio/v3/developer/toolchains/gnu_arm/4.8_2013q4/bin/../lib/gcc/arm-none-eabi/4.8.3/armv7-m\libgcc.a(_arm_fixdfsi.o)
 .bss           0x00000000        0x0 c:/siliconlabs/simplicitystudio/v3/developer/toolchains/gnu_arm/4.8_2013q4/bin/../lib/gcc/arm-none-eabi/4.8.3/armv7-m\libgcc.a(_arm_fixdfsi.o)
 .data          0x00000000        0x0 c:/siliconlabs/simplicitystudio/v3/developer/toolchains/gnu_arm/4.8_2013q4/bin/../lib/gcc/arm-none-eabi/4.8.3/armv7-m\libgcc.a(_arm_fixunsdfsi.o)
 .bss           0x00000000        0x0 c:/siliconlabs/simplicitystudio/v3/developer/toolchains/gnu_arm/4.8_2013q4/bin/../lib/gcc/arm-none-eabi/4.8.3/armv7-m\libgcc.a(_arm_fixunsdfsi.o)
 .data          0x00000000        0x0 c:/siliconlabs/simplicitystudio/v3/developer/toolchains/gnu_arm/4.8_2013q4/bin/../lib/gcc/arm-none-eabi/4.8.3/armv7-m\libgcc.a(_arm_truncdfsf2.o)
 .bss           0x00000000        0x0 c:/siliconlabs/simplicitystudio/v3/developer/toolchains/gnu_arm/4.8_2013q4/bin/../lib/gcc/arm-none-eabi/4.8.3/armv7-m\libgcc.a(_arm_truncdfsf2.o)
 .data          0x00000000        0x0 c:/siliconlabs/simplicitystudio/v3/developer/toolchains/gnu_arm/4.8_2013q4/bin/../lib/gcc/arm-none-eabi/4.8.3/armv7-m\libgcc.a(_aeabi_ldivmod.o)
 .bss           0x00000000        0x0 c:/siliconlabs/simplicitystudio/v3/developer/toolchains/gnu_arm/4.8_2013q4/bin/../lib/gcc/arm-none-eabi/4.8.3/armv7-m\libgcc.a(_aeabi_ldivmod.o)
 .data          0x00000000        0x0 c:/siliconlabs/simplicitystudio/v3/developer/toolchains/gnu_arm/4.8_2013q4/bin/../lib/gcc/arm-none-eabi/4.8.3/armv7-m\libgcc.a(_aeabi_uldivmod.o)
 .bss           0x00000000        0x0 c:/siliconlabs/simplicitystudio/v3/developer/toolchains/gnu_arm/4.8_2013q4/bin/../lib/gcc/arm-none-eabi/4.8.3/armv7-m\libgcc.a(_aeabi_uldivmod.o)
 .data          0x00000000        0x0 c:/siliconlabs/simplicitystudio/v3/developer/toolchains/gnu_arm/4.8_2013q4/bin/../lib/gcc/arm-none-eabi/4.8.3/armv7-m\libgcc.a(_fixdfdi.o)
 .bss           0x00000000        0x0 c:/siliconlabs/simplicitystudio/v3/developer/toolchains/gnu_arm/4.8_2013q4/bin/../lib/gcc/arm-none-eabi/4.8.3/armv7-m\libgcc.a(_fixdfdi.o)
 .data          0x00000000        0x0 c:/siliconlabs/simplicitystudio/v3/developer/toolchains/gnu_arm/4.8_2013q4/bin/../lib/gcc/arm-none-eabi/4.8.3/armv7-m\libgcc.a(_fixunsdfdi.o)
 .bss           0x00000000        0x0 c:/siliconlabs/simplicitystudio/v3/developer/toolchains/gnu_arm/4.8_2013q4/bin/../lib/gcc/arm-none-eabi/4.8.3/armv7-m\libgcc.a(_fixunsdfdi.o)
 .data          0x00000000        0x0 c:/siliconlabs/simplicitystudio/v3/developer/toolchains/gnu_arm/4.8_2013q4/bin/../lib/gcc/arm-none-eabi/4.8.3/armv7-m\libgcc.a(bpabi.o)
 .bss           0x00000000        0x0 c:/siliconlabs/simplicitystudio/v3/developer/toolchains/gnu_arm/4.8_2013q4/bin/../lib/gcc/arm-none-eabi/4.8.3/armv7-m\libgcc.a(bpabi.o)
 .data          0x00000000        0x0 c:/siliconlabs/simplicitystudio/v3/developer/toolchains/gnu_arm/4.8_2013q4/bin/../lib/gcc/arm-none-eabi/4.8.3/armv7-m\libgcc.a(_dvmd_tls.o)
 .bss           0x00000000        0x0 c:/siliconlabs/simplicitystudio/v3/developer/toolchains/gnu_arm/4.8_2013q4/bin/../lib/gcc/arm-none-eabi/4.8.3/armv7-m\libgcc.a(_dvmd_tls.o)
 .data          0x00000000        0x0 c:/siliconlabs/simplicitystudio/v3/developer/toolchains/gnu_arm/4.8_2013q4/bin/../lib/gcc/arm-none-eabi/4.8.3/armv7-m\libgcc.a(_divdi3.o)
 .bss           0x00000000        0x0 c:/siliconlabs/simplicitystudio/v3/developer/toolchains/gnu_arm/4.8_2013q4/bin/../lib/gcc/arm-none-eabi/4.8.3/armv7-m\libgcc.a(_divdi3.o)
 .ARM.extab     0x00000000        0x0 c:/siliconlabs/simplicitystudio/v3/developer/toolchains/gnu_arm/4.8_2013q4/bin/../lib/gcc/arm-none-eabi/4.8.3/armv7-m\libgcc.a(_divdi3.o)
 .data          0x00000000        0x0 c:/siliconlabs/simplicitystudio/v3/developer/toolchains/gnu_arm/4.8_2013q4/bin/../lib/gcc/arm-none-eabi/4.8.3/armv7-m\libgcc.a(_udivdi3.o)
 .bss           0x00000000        0x0 c:/siliconlabs/simplicitystudio/v3/developer/toolchains/gnu_arm/4.8_2013q4/bin/../lib/gcc/arm-none-eabi/4.8.3/armv7-m\libgcc.a(_udivdi3.o)
 .ARM.extab     0x00000000        0x0 c:/siliconlabs/simplicitystudio/v3/developer/toolchains/gnu_arm/4.8_2013q4/bin/../lib/gcc/arm-none-eabi/4.8.3/armv7-m\libgcc.a(_udivdi3.o)
 .data          0x00000000        0x0 c:/siliconlabs/simplicitystudio/v3/developer/toolchains/gnu_arm/4.8_2013q4/bin/../lib/gcc/arm-none-eabi/4.8.3/../../../../arm-none-eabi/lib/armv7-m\libg.a(lib_a-memcpy.o)
 .bss           0x00000000        0x0 c:/siliconlabs/simplicitystudio/v3/developer/toolchains/gnu_arm/4.8_2013q4/bin/../lib/gcc/arm-none-eabi/4.8.3/../../../../arm-none-eabi/lib/armv7-m\libg.a(lib_a-memcpy.o)
 .text          0x00000000        0x0 c:/siliconlabs/simplicitystudio/v3/developer/toolchains/gnu_arm/4.8_2013q4/bin/../lib/gcc/arm-none-eabi/4.8.3/../../../../arm-none-eabi/lib/armv7-m\libg.a(lib_a-memmove.o)
 .data          0x00000000        0x0 c:/siliconlabs/simplicitystudio/v3/developer/toolchains/gnu_arm/4.8_2013q4/bin/../lib/gcc/arm-none-eabi/4.8.3/../../../../arm-none-eabi/lib/armv7-m\libg.a(lib_a-memmove.o)
 .bss           0x00000000        0x0 c:/siliconlabs/simplicitystudio/v3/developer/toolchains/gnu_arm/4.8_2013q4/bin/../lib/gcc/arm-none-eabi/4.8.3/../../../../arm-none-eabi/lib/armv7-m\libg.a(lib_a-memmove.o)
 .data          0x00000000        0x0 c:/siliconlabs/simplicitystudio/v3/developer/toolchains/gnu_arm/4.8_2013q4/bin/../lib/gcc/arm-none-eabi/4.8.3/../../../../arm-none-eabi/lib/armv7-m\libg.a(lib_a-strcmp.o)
 .bss           0x00000000        0x0 c:/siliconlabs/simplicitystudio/v3/developer/toolchains/gnu_arm/4.8_2013q4/bin/../lib/gcc/arm-none-eabi/4.8.3/../../../../arm-none-eabi/lib/armv7-m\libg.a(lib_a-strcmp.o)
 .text          0x00000000        0x0 c:/siliconlabs/simplicitystudio/v3/developer/toolchains/gnu_arm/4.8_2013q4/bin/../lib/gcc/arm-none-eabi/4.8.3/../../../../arm-none-eabi/lib/armv7-m\libg.a(lib_a-strlen.o)
 .data          0x00000000        0x0 c:/siliconlabs/simplicitystudio/v3/developer/toolchains/gnu_arm/4.8_2013q4/bin/../lib/gcc/arm-none-eabi/4.8.3/../../../../arm-none-eabi/lib/armv7-m\libg.a(lib_a-strlen.o)
 .bss           0x00000000        0x0 c:/siliconlabs/simplicitystudio/v3/developer/toolchains/gnu_arm/4.8_2013q4/bin/../lib/gcc/arm-none-eabi/4.8.3/../../../../arm-none-eabi/lib/armv7-m\libg.a(lib_a-strlen.o)
 .text          0x00000000        0x0 c:/siliconlabs/simplicitystudio/v3/developer/toolchains/gnu_arm/4.8_2013q4/bin/../lib/gcc/arm-none-eabi/4.8.3/../../../../arm-none-eabi/lib/armv7-m\libg.a(lib_a-strncat.o)
 .data          0x00000000        0x0 c:/siliconlabs/simplicitystudio/v3/developer/toolchains/gnu_arm/4.8_2013q4/bin/../lib/gcc/arm-none-eabi/4.8.3/../../../../arm-none-eabi/lib/armv7-m\libg.a(lib_a-strncat.o)
 .bss           0x00000000        0x0 c:/siliconlabs/simplicitystudio/v3/developer/toolchains/gnu_arm/4.8_2013q4/bin/../lib/gcc/arm-none-eabi/4.8.3/../../../../arm-none-eabi/lib/armv7-m\libg.a(lib_a-strncat.o)
 .text          0x00000000        0x0 c:/siliconlabs/simplicitystudio/v3/developer/toolchains/gnu_arm/4.8_2013q4/bin/../lib/gcc/arm-none-eabi/4.8.3/../../../../arm-none-eabi/lib/armv7-m\libg.a(lib_a-strncpy.o)
 .data          0x00000000        0x0 c:/siliconlabs/simplicitystudio/v3/developer/toolchains/gnu_arm/4.8_2013q4/bin/../lib/gcc/arm-none-eabi/4.8.3/../../../../arm-none-eabi/lib/armv7-m\libg.a(lib_a-strncpy.o)
 .bss           0x00000000        0x0 c:/siliconlabs/simplicitystudio/v3/developer/toolchains/gnu_arm/4.8_2013q4/bin/../lib/gcc/arm-none-eabi/4.8.3/../../../../arm-none-eabi/lib/armv7-m\libg.a(lib_a-strncpy.o)
 .text          0x00000000        0x0 src/jsvar.o (symbol from plugin)
 .text          0x00000000        0x0 src/jsvariterator.o (symbol from plugin)
 .text          0x00000000        0x0 src/jsutils.o (symbol from plugin)
 .text          0x00000000        0x0 src/jsnative.o (symbol from plugin)
 .text          0x00000000        0x0 src/jsparse.o (symbol from plugin)
 .text          0x00000000        0x0 src/jspin.o (symbol from plugin)
 .text          0x00000000        0x0 src/jsinteractive.o (symbol from plugin)
 .text          0x00000000        0x0 src/jsdevices.o (symbol from plugin)
 .text          0x00000000        0x0 src/jstimer.o (symbol from plugin)
 .text          0x00000000        0x0 src/jsspi.o (symbol from plugin)
 .text          0x00000000        0x0 gen/jswrapper.o (symbol from plugin)
 .text          0x00000000        0x0 libs/compression/heatshrink/heatshrink_encoder.o (symbol from plugin)
 .text          0x00000000        0x0 libs/compression/heatshrink/heatshrink_decoder.o (symbol from plugin)
 .text          0x00000000        0x0 libs/compression/compress_heatshrink.o (symbol from plugin)
 .text          0x00000000        0x0 libs/math/acosh.o (symbol from plugin)
 .text          0x00000000        0x0 libs/math/asin.o (symbol from plugin)
 .text          0x00000000        0x0 libs/math/asinh.o (symbol from plugin)
 .text          0x00000000        0x0 libs/math/atan.o (symbol from plugin)
 .text          0x00000000        0x0 libs/math/atanh.o (symbol from plugin)
 .text          0x00000000        0x0 libs/math/cbrt.o (symbol from plugin)
 .text          0x00000000        0x0 libs/math/chbevl.o (symbol from plugin)
 .text          0x00000000        0x0 libs/math/clog.o (symbol from plugin)
 .text          0x00000000        0x0 libs/math/cmplx.o (symbol from plugin)
 .text          0x00000000        0x0 libs/math/const.o (symbol from plugin)
 .text          0x00000000        0x0 libs/math/cosh.o (symbol from plugin)
 .text          0x00000000        0x0 libs/math/drand.o (symbol from plugin)
 .text          0x00000000        0x0 libs/math/exp10.o (symbol from plugin)
 .text          0x00000000        0x0 libs/math/exp2.o (symbol from plugin)
 .text          0x00000000        0x0 libs/math/exp.o (symbol from plugin)
 .text          0x00000000        0x0 libs/math/fabs.o (symbol from plugin)
 .text          0x00000000        0x0 libs/math/floor.o (symbol from plugin)
 .text          0x00000000        0x0 libs/math/isnan.o (symbol from plugin)
 .text          0x00000000        0x0 libs/math/log10.o (symbol from plugin)
 .text          0x00000000        0x0 libs/math/log2.o (symbol from plugin)
 .text          0x00000000        0x0 libs/math/log.o (symbol from plugin)
 .text          0x00000000        0x0 libs/math/mtherr.o (symbol from plugin)
 .text          0x00000000        0x0 libs/math/polevl.o (symbol from plugin)
 .text          0x00000000        0x0 libs/math/pow.o (symbol from plugin)
 .text          0x00000000        0x0 libs/math/powi.o (symbol from plugin)
 .text          0x00000000        0x0 libs/math/round.o (symbol from plugin)
 .text          0x00000000        0x0 libs/math/setprec.o (symbol from plugin)
 .text          0x00000000        0x0 libs/math/sin.o (symbol from plugin)
 .text          0x00000000        0x0 libs/math/sincos.o (symbol from plugin)
 .text          0x00000000        0x0 libs/math/sindg.o (symbol from plugin)
 .text          0x00000000        0x0 libs/math/sinh.o (symbol from plugin)
 .text          0x00000000        0x0 libs/math/sqrt.o (symbol from plugin)
 .text          0x00000000        0x0 libs/math/tan.o (symbol from plugin)
 .text          0x00000000        0x0 libs/math/tandg.o (symbol from plugin)
 .text          0x00000000        0x0 libs/math/tanh.o (symbol from plugin)
 .text          0x00000000        0x0 libs/math/unity.o (symbol from plugin)
 .text          0x00000000        0x0 targets/efm32/main.o (symbol from plugin)
 .text          0x00000000        0x0 targets/efm32/jshardware.o (symbol from plugin)
 .text          0x00000000        0x0 c:/Users/apsyvert/Documents/work/github/Espruino_SL/Espruino/targetlibs/Gecko_SDK/Device/SiliconLabs/EFM32GG/Source/GCC/startup_efm32gg.o (symbol from plugin)
 .text          0x00000000        0x0 c:/Users/apsyvert/Documents/work/github/Espruino_SL/Espruino/targetlibs/Gecko_SDK/Device/SiliconLabs/EFM32GG/Source/system_efm32gg.o (symbol from plugin)
 .text          0x00000000        0x0 c:/Users/apsyvert/Documents/work/github/Espruino_SL/Espruino/targetlibs/Gecko_SDK/emlib/src/em_gpio.o (symbol from plugin)
 .text          0x00000000        0x0 c:/Users/apsyvert/Documents/work/github/Espruino_SL/Espruino/targetlibs/Gecko_SDK/emlib/src/em_cmu.o (symbol from plugin)
 .text          0x00000000        0x0 c:/Users/apsyvert/Documents/work/github/Espruino_SL/Espruino/targetlibs/Gecko_SDK/emlib/src/em_assert.o (symbol from plugin)
 .text          0x00000000        0x0 c:/Users/apsyvert/Documents/work/github/Espruino_SL/Espruino/targetlibs/Gecko_SDK/emlib/src/em_emu.o (symbol from plugin)
 .text          0x00000000        0x0 c:/Users/apsyvert/Documents/work/github/Espruino_SL/Espruino/targetlibs/Gecko_SDK/emlib/src/em_msc.o (symbol from plugin)
 .text          0x00000000        0x0 c:/Users/apsyvert/Documents/work/github/Espruino_SL/Espruino/targetlibs/Gecko_SDK/emlib/src/em_rtc.o (symbol from plugin)
 .text          0x00000000        0x0 c:/Users/apsyvert/Documents/work/github/Espruino_SL/Espruino/targetlibs/Gecko_SDK/emlib/src/em_int.o (symbol from plugin)
 .text          0x00000000        0x0 c:/Users/apsyvert/Documents/work/github/Espruino_SL/Espruino/targetlibs/Gecko_SDK/emlib/src/em_system.o (symbol from plugin)
 .text          0x00000000        0x0 c:/Users/apsyvert/Documents/work/github/Espruino_SL/Espruino/targetlibs/Gecko_SDK/emlib/src/em_timer.o (symbol from plugin)
 .text          0x00000000        0x0 c:/Users/apsyvert/Documents/work/github/Espruino_SL/Espruino/targetlibs/Gecko_SDK/emlib/src/em_usart.o (symbol from plugin)
 .text          0x00000000        0x0 c:/Users/apsyvert/Documents/work/github/Espruino_SL/Espruino/targetlibs/Gecko_SDK/emdrv/gpiointerrupt/src/gpiointerrupt.o (symbol from plugin)
 .text          0x00000000        0x0 c:/Users/apsyvert/Documents/work/github/Espruino_SL/Espruino/targetlibs/Gecko_SDK/emdrv/rtcdrv/src/rtcdriver.o (symbol from plugin)
 .text          0x00000000        0x0 c:/Users/apsyvert/Documents/work/github/Espruino_SL/Espruino/targetlibs/Gecko_SDK/emdrv/nvm/src/nvm_hal.o (symbol from plugin)
 .text          0x00000000        0x0 c:/Users/apsyvert/Documents/work/github/Espruino_SL/Espruino/gen/jspininfo.o (symbol from plugin)
 .text          0x00000000        0x0 src/jswrap_array.o (symbol from plugin)
 .text          0x00000000        0x0 src/jswrap_arraybuffer.o (symbol from plugin)
 .text          0x00000000        0x0 src/jswrap_date.o (symbol from plugin)
 .text          0x00000000        0x0 src/jswrap_error.o (symbol from plugin)
 .text          0x00000000        0x0 src/jswrap_espruino.o (symbol from plugin)
 .text          0x00000000        0x0 src/jswrap_flash.o (symbol from plugin)
 .text          0x00000000        0x0 src/jswrap_functions.o (symbol from plugin)
 .text          0x00000000        0x0 src/jswrap_interactive.o (symbol from plugin)
 .text          0x00000000        0x0 src/jswrap_io.o (symbol from plugin)
 .text          0x00000000        0x0 src/jswrap_json.o (symbol from plugin)
 .text          0x00000000        0x0 src/jswrap_modules.o (symbol from plugin)
 .text          0x00000000        0x0 src/jswrap_pin.o (symbol from plugin)
 .text          0x00000000        0x0 src/jswrap_number.o (symbol from plugin)
 .text          0x00000000        0x0 src/jswrap_object.o (symbol from plugin)
 .text          0x00000000        0x0 src/jswrap_onewire.o (symbol from plugin)
 .text          0x00000000        0x0 src/jswrap_pipe.o (symbol from plugin)
 .text          0x00000000        0x0 src/jswrap_process.o (symbol from plugin)
 .text          0x00000000        0x0 src/jswrap_serial.o (symbol from plugin)
 .text          0x00000000        0x0 src/jswrap_spi_i2c.o (symbol from plugin)
 .text          0x00000000        0x0 src/jswrap_stream.o (symbol from plugin)
 .text          0x00000000        0x0 src/jswrap_string.o (symbol from plugin)
 .text          0x00000000        0x0 src/jswrap_waveform.o (symbol from plugin)
 .text          0x00000000        0x0 libs/math/jswrap_math.o (symbol from plugin)
 .text          0x00000000        0x0 c:/siliconlabs/simplicitystudio/v3/developer/toolchains/gnu_arm/4.8_2013q4/bin/../lib/gcc/arm-none-eabi/4.8.3/../../../../arm-none-eabi/lib/armv7-m\libg.a(lib_a-rand.o)
 .data          0x00000000        0x0 c:/siliconlabs/simplicitystudio/v3/developer/toolchains/gnu_arm/4.8_2013q4/bin/../lib/gcc/arm-none-eabi/4.8.3/../../../../arm-none-eabi/lib/armv7-m\libg.a(lib_a-rand.o)
 .bss           0x00000000        0x0 c:/siliconlabs/simplicitystudio/v3/developer/toolchains/gnu_arm/4.8_2013q4/bin/../lib/gcc/arm-none-eabi/4.8.3/../../../../arm-none-eabi/lib/armv7-m\libg.a(lib_a-rand.o)
 .text          0x00000000        0x0 c:/siliconlabs/simplicitystudio/v3/developer/toolchains/gnu_arm/4.8_2013q4/bin/../lib/gcc/arm-none-eabi/4.8.3/armv7-m/crtend.o
 .data          0x00000000        0x0 c:/siliconlabs/simplicitystudio/v3/developer/toolchains/gnu_arm/4.8_2013q4/bin/../lib/gcc/arm-none-eabi/4.8.3/armv7-m/crtend.o
 .bss           0x00000000        0x0 c:/siliconlabs/simplicitystudio/v3/developer/toolchains/gnu_arm/4.8_2013q4/bin/../lib/gcc/arm-none-eabi/4.8.3/armv7-m/crtend.o
 .text          0x00000000        0x0 c:/siliconlabs/simplicitystudio/v3/developer/toolchains/gnu_arm/4.8_2013q4/bin/../lib/gcc/arm-none-eabi/4.8.3/armv7-m/crtn.o
 .data          0x00000000        0x0 c:/siliconlabs/simplicitystudio/v3/developer/toolchains/gnu_arm/4.8_2013q4/bin/../lib/gcc/arm-none-eabi/4.8.3/armv7-m/crtn.o
 .bss           0x00000000        0x0 c:/siliconlabs/simplicitystudio/v3/developer/toolchains/gnu_arm/4.8_2013q4/bin/../lib/gcc/arm-none-eabi/4.8.3/armv7-m/crtn.o

Memory Configuration

Name             Origin             Length             Attributes
FLASH            0x00000000         0x00100000         xr
RAM              0x20000000         0x00020000         xrw
*default*        0x00000000         0xffffffff

Linker script and memory map

LOAD c:/siliconlabs/simplicitystudio/v3/developer/toolchains/gnu_arm/4.8_2013q4/bin/../lib/gcc/arm-none-eabi/4.8.3/armv7-m/crti.o
LOAD c:/siliconlabs/simplicitystudio/v3/developer/toolchains/gnu_arm/4.8_2013q4/bin/../lib/gcc/arm-none-eabi/4.8.3/armv7-m/crtbegin.o
LOAD c:/siliconlabs/simplicitystudio/v3/developer/toolchains/gnu_arm/4.8_2013q4/bin/../lib/gcc/arm-none-eabi/4.8.3/../../../../arm-none-eabi/lib/armv7-m/crt0.o
START GROUP
LOAD c:/siliconlabs/simplicitystudio/v3/developer/toolchains/gnu_arm/4.8_2013q4/bin/../lib/gcc/arm-none-eabi/4.8.3/armv7-m\libgcc.a
LOAD c:/siliconlabs/simplicitystudio/v3/developer/toolchains/gnu_arm/4.8_2013q4/bin/../lib/gcc/arm-none-eabi/4.8.3/../../../../arm-none-eabi/lib/armv7-m\libc.a
LOAD c:/siliconlabs/simplicitystudio/v3/developer/toolchains/gnu_arm/4.8_2013q4/bin/../lib/gcc/arm-none-eabi/4.8.3/../../../../arm-none-eabi/lib/armv7-m\libnosys.a
END GROUP
LOAD src/jslex.o
LOAD C:\Users\apsyvert\AppData\Local\Temp\cc8fH946.ltrans0.ltrans.o
LOAD C:\Users\apsyvert\AppData\Local\Temp\cc8fH946.ltrans1.ltrans.o
LOAD C:\Users\apsyvert\AppData\Local\Temp\cc8fH946.ltrans2.ltrans.o
LOAD C:\Users\apsyvert\AppData\Local\Temp\cc8fH946.ltrans3.ltrans.o
LOAD C:\Users\apsyvert\AppData\Local\Temp\cc8fH946.ltrans4.ltrans.o
LOAD C:\Users\apsyvert\AppData\Local\Temp\cc8fH946.ltrans5.ltrans.o
LOAD C:\Users\apsyvert\AppData\Local\Temp\cc8fH946.ltrans6.ltrans.o
LOAD C:\Users\apsyvert\AppData\Local\Temp\cc8fH946.ltrans7.ltrans.o
LOAD C:\Users\apsyvert\AppData\Local\Temp\cc8fH946.ltrans8.ltrans.o
LOAD C:\Users\apsyvert\AppData\Local\Temp\cc8fH946.ltrans9.ltrans.o
LOAD C:\Users\apsyvert\AppData\Local\Temp\cc8fH946.ltrans10.ltrans.o
LOAD C:\Users\apsyvert\AppData\Local\Temp\cc8fH946.ltrans11.ltrans.o
LOAD C:\Users\apsyvert\AppData\Local\Temp\cc8fH946.ltrans12.ltrans.o
LOAD C:\Users\apsyvert\AppData\Local\Temp\cc8fH946.ltrans13.ltrans.o
LOAD C:\Users\apsyvert\AppData\Local\Temp\cc8fH946.ltrans14.ltrans.o
LOAD C:\Users\apsyvert\AppData\Local\Temp\cc8fH946.ltrans15.ltrans.o
LOAD C:\Users\apsyvert\AppData\Local\Temp\cc8fH946.ltrans16.ltrans.o
LOAD C:\Users\apsyvert\AppData\Local\Temp\cc8fH946.ltrans17.ltrans.o
LOAD C:\Users\apsyvert\AppData\Local\Temp\cc8fH946.ltrans18.ltrans.o
LOAD C:\Users\apsyvert\AppData\Local\Temp\cc8fH946.ltrans19.ltrans.o
LOAD C:\Users\apsyvert\AppData\Local\Temp\cc8fH946.ltrans20.ltrans.o
LOAD C:\Users\apsyvert\AppData\Local\Temp\cc8fH946.ltrans21.ltrans.o
LOAD C:\Users\apsyvert\AppData\Local\Temp\cc8fH946.ltrans22.ltrans.o
LOAD C:\Users\apsyvert\AppData\Local\Temp\cc8fH946.ltrans23.ltrans.o
LOAD C:\Users\apsyvert\AppData\Local\Temp\cc8fH946.ltrans24.ltrans.o
LOAD C:\Users\apsyvert\AppData\Local\Temp\cc8fH946.ltrans25.ltrans.o
LOAD C:\Users\apsyvert\AppData\Local\Temp\cc8fH946.ltrans26.ltrans.o
LOAD C:\Users\apsyvert\AppData\Local\Temp\cc8fH946.ltrans27.ltrans.o
LOAD C:\Users\apsyvert\AppData\Local\Temp\cc8fH946.ltrans28.ltrans.o
LOAD C:\Users\apsyvert\AppData\Local\Temp\cc8fH946.ltrans29.ltrans.o
LOAD C:\Users\apsyvert\AppData\Local\Temp\cc8fH946.ltrans30.ltrans.o
LOAD c:/siliconlabs/simplicitystudio/v3/developer/toolchains/gnu_arm/4.8_2013q4/bin/../lib/gcc/arm-none-eabi/4.8.3/armv7-m\libgcc.a
LOAD c:/siliconlabs/simplicitystudio/v3/developer/toolchains/gnu_arm/4.8_2013q4/bin/../lib/gcc/arm-none-eabi/4.8.3/../../../../arm-none-eabi/lib/armv7-m\libg.a
LOAD c:/siliconlabs/simplicitystudio/v3/developer/toolchains/gnu_arm/4.8_2013q4/bin/../lib/gcc/arm-none-eabi/4.8.3/../../../../arm-none-eabi/lib/armv7-m\libc.a
LOAD src/jsvar.o
LOAD src/jsvariterator.o
LOAD src/jsutils.o
LOAD src/jsnative.o
LOAD src/jsparse.o
LOAD src/jspin.o
LOAD src/jsinteractive.o
LOAD src/jsdevices.o
LOAD src/jstimer.o
LOAD src/jsspi.o
LOAD gen/jswrapper.o
LOAD libs/compression/heatshrink/heatshrink_encoder.o
LOAD libs/compression/heatshrink/heatshrink_decoder.o
LOAD libs/compression/compress_heatshrink.o
LOAD libs/math/acosh.o
LOAD libs/math/asin.o
LOAD libs/math/asinh.o
LOAD libs/math/atan.o
LOAD libs/math/atanh.o
LOAD libs/math/cbrt.o
LOAD libs/math/chbevl.o
LOAD libs/math/clog.o
LOAD libs/math/cmplx.o
LOAD libs/math/const.o
LOAD libs/math/cosh.o
LOAD libs/math/drand.o
LOAD libs/math/exp10.o
LOAD libs/math/exp2.o
LOAD libs/math/exp.o
LOAD libs/math/fabs.o
LOAD libs/math/floor.o
LOAD libs/math/isnan.o
LOAD libs/math/log10.o
LOAD libs/math/log2.o
LOAD libs/math/log.o
LOAD libs/math/mtherr.o
LOAD libs/math/polevl.o
LOAD libs/math/pow.o
LOAD libs/math/powi.o
LOAD libs/math/round.o
LOAD libs/math/setprec.o
LOAD libs/math/sin.o
LOAD libs/math/sincos.o
LOAD libs/math/sindg.o
LOAD libs/math/sinh.o
LOAD libs/math/sqrt.o
LOAD libs/math/tan.o
LOAD libs/math/tandg.o
LOAD libs/math/tanh.o
LOAD libs/math/unity.o
LOAD targets/efm32/main.o
LOAD targets/efm32/jshardware.o
LOAD c:/Users/apsyvert/Documents/work/github/Espruino_SL/Espruino/targetlibs/Gecko_SDK/Device/SiliconLabs/EFM32GG/Source/GCC/startup_efm32gg.o
LOAD c:/Users/apsyvert/Documents/work/github/Espruino_SL/Espruino/targetlibs/Gecko_SDK/Device/SiliconLabs/EFM32GG/Source/system_efm32gg.o
LOAD c:/Users/apsyvert/Documents/work/github/Espruino_SL/Espruino/targetlibs/Gecko_SDK/emlib/src/em_gpio.o
LOAD c:/Users/apsyvert/Documents/work/github/Espruino_SL/Espruino/targetlibs/Gecko_SDK/emlib/src/em_cmu.o
LOAD c:/Users/apsyvert/Documents/work/github/Espruino_SL/Espruino/targetlibs/Gecko_SDK/emlib/src/em_assert.o
LOAD c:/Users/apsyvert/Documents/work/github/Espruino_SL/Espruino/targetlibs/Gecko_SDK/emlib/src/em_emu.o
LOAD c:/Users/apsyvert/Documents/work/github/Espruino_SL/Espruino/targetlibs/Gecko_SDK/emlib/src/em_msc.o
LOAD c:/Users/apsyvert/Documents/work/github/Espruino_SL/Espruino/targetlibs/Gecko_SDK/emlib/src/em_rtc.o
LOAD c:/Users/apsyvert/Documents/work/github/Espruino_SL/Espruino/targetlibs/Gecko_SDK/emlib/src/em_int.o
LOAD c:/Users/apsyvert/Documents/work/github/Espruino_SL/Espruino/targetlibs/Gecko_SDK/emlib/src/em_system.o
LOAD c:/Users/apsyvert/Documents/work/github/Espruino_SL/Espruino/targetlibs/Gecko_SDK/emlib/src/em_timer.o
LOAD c:/Users/apsyvert/Documents/work/github/Espruino_SL/Espruino/targetlibs/Gecko_SDK/emlib/src/em_usart.o
LOAD c:/Users/apsyvert/Documents/work/github/Espruino_SL/Espruino/targetlibs/Gecko_SDK/emdrv/gpiointerrupt/src/gpiointerrupt.o
LOAD c:/Users/apsyvert/Documents/work/github/Espruino_SL/Espruino/targetlibs/Gecko_SDK/emdrv/rtcdrv/src/rtcdriver.o
LOAD c:/Users/apsyvert/Documents/work/github/Espruino_SL/Espruino/targetlibs/Gecko_SDK/emdrv/nvm/src/nvm_hal.o
LOAD c:/Users/apsyvert/Documents/work/github/Espruino_SL/Espruino/gen/jspininfo.o
LOAD src/jswrap_array.o
LOAD src/jswrap_arraybuffer.o
LOAD src/jswrap_date.o
LOAD src/jswrap_error.o
LOAD src/jswrap_espruino.o
LOAD src/jswrap_flash.o
LOAD src/jswrap_functions.o
LOAD src/jswrap_interactive.o
LOAD src/jswrap_io.o
LOAD src/jswrap_json.o
LOAD src/jswrap_modules.o
LOAD src/jswrap_pin.o
LOAD src/jswrap_number.o
LOAD src/jswrap_object.o
LOAD src/jswrap_onewire.o
LOAD src/jswrap_pipe.o
LOAD src/jswrap_process.o
LOAD src/jswrap_serial.o
LOAD src/jswrap_spi_i2c.o
LOAD src/jswrap_stream.o
LOAD src/jswrap_string.o
LOAD src/jswrap_waveform.o
LOAD libs/math/jswrap_math.o
START GROUP
LOAD c:/siliconlabs/simplicitystudio/v3/developer/toolchains/gnu_arm/4.8_2013q4/bin/../lib/gcc/arm-none-eabi/4.8.3/armv7-m\libgcc.a
LOAD c:/siliconlabs/simplicitystudio/v3/developer/toolchains/gnu_arm/4.8_2013q4/bin/../lib/gcc/arm-none-eabi/4.8.3/../../../../arm-none-eabi/lib/armv7-m\libg.a
LOAD c:/siliconlabs/simplicitystudio/v3/developer/toolchains/gnu_arm/4.8_2013q4/bin/../lib/gcc/arm-none-eabi/4.8.3/../../../../arm-none-eabi/lib/armv7-m\libc.a
END GROUP
LOAD c:/siliconlabs/simplicitystudio/v3/developer/toolchains/gnu_arm/4.8_2013q4/bin/../lib/gcc/arm-none-eabi/4.8.3/armv7-m/crtend.o
LOAD c:/siliconlabs/simplicitystudio/v3/developer/toolchains/gnu_arm/4.8_2013q4/bin/../lib/gcc/arm-none-eabi/4.8.3/armv7-m/crtn.o

.text           0x00000000    0x38fb4
 *(.vectors)
 .vectors       0x00000000       0xdc C:\Users\apsyvert\AppData\Local\Temp\cc8fH946.ltrans0.ltrans.o
                0x000000dc                __Vectors_End = .
                0x000000dc                __Vectors_Size = (__Vectors_End - __Vectors)
                0x000000dc                __end__ = .
 *(.text*)
 .text          0x000000dc       0x54 c:/siliconlabs/simplicitystudio/v3/developer/toolchains/gnu_arm/4.8_2013q4/bin/../lib/gcc/arm-none-eabi/4.8.3/armv7-m/crtbegin.o
 .text          0x00000130       0x74 c:/siliconlabs/simplicitystudio/v3/developer/toolchains/gnu_arm/4.8_2013q4/bin/../lib/gcc/arm-none-eabi/4.8.3/../../../../arm-none-eabi/lib/armv7-m/crt0.o
                0x00000130                _start
                0x00000130                _mainCRTStartup
 .text.exit     0x000001a4       0x20 c:/siliconlabs/simplicitystudio/v3/developer/toolchains/gnu_arm/4.8_2013q4/bin/../lib/gcc/arm-none-eabi/4.8.3/../../../../arm-none-eabi/lib/armv7-m\libc.a(lib_a-exit.o)
                0x000001a4                exit
 .text.__libc_init_array
                0x000001c4       0x50 c:/siliconlabs/simplicitystudio/v3/developer/toolchains/gnu_arm/4.8_2013q4/bin/../lib/gcc/arm-none-eabi/4.8.3/../../../../arm-none-eabi/lib/armv7-m\libc.a(lib_a-init.o)
                0x000001c4                __libc_init_array
 .text.memset   0x00000214       0x94 c:/siliconlabs/simplicitystudio/v3/developer/toolchains/gnu_arm/4.8_2013q4/bin/../lib/gcc/arm-none-eabi/4.8.3/../../../../arm-none-eabi/lib/armv7-m\libc.a(lib_a-memset.o)
                0x00000214                memset
 .text.startup.register_fini
                0x000002a8       0x14 c:/siliconlabs/simplicitystudio/v3/developer/toolchains/gnu_arm/4.8_2013q4/bin/../lib/gcc/arm-none-eabi/4.8.3/../../../../arm-none-eabi/lib/armv7-m\libc.a(lib_a-__call_atexit.o)
 .text.__call_exitprocs
                0x000002bc       0xf0 c:/siliconlabs/simplicitystudio/v3/developer/toolchains/gnu_arm/4.8_2013q4/bin/../lib/gcc/arm-none-eabi/4.8.3/../../../../arm-none-eabi/lib/armv7-m\libc.a(lib_a-__call_atexit.o)
                0x000002bc                __call_exitprocs
 .text.atexit   0x000003ac        0xc c:/siliconlabs/simplicitystudio/v3/developer/toolchains/gnu_arm/4.8_2013q4/bin/../lib/gcc/arm-none-eabi/4.8.3/../../../../arm-none-eabi/lib/armv7-m\libc.a(lib_a-atexit.o)
                0x000003ac                atexit
 .text.__libc_fini_array
                0x000003b8       0x30 c:/siliconlabs/simplicitystudio/v3/developer/toolchains/gnu_arm/4.8_2013q4/bin/../lib/gcc/arm-none-eabi/4.8.3/../../../../arm-none-eabi/lib/armv7-m\libc.a(lib_a-fini.o)
                0x000003b8                __libc_fini_array
 .text.__register_exitproc
                0x000003e8       0xa8 c:/siliconlabs/simplicitystudio/v3/developer/toolchains/gnu_arm/4.8_2013q4/bin/../lib/gcc/arm-none-eabi/4.8.3/../../../../arm-none-eabi/lib/armv7-m\libc.a(lib_a-__atexit.o)
                0x000003e8                __register_exitproc
 .text._exit    0x00000490        0x4 c:/siliconlabs/simplicitystudio/v3/developer/toolchains/gnu_arm/4.8_2013q4/bin/../lib/gcc/arm-none-eabi/4.8.3/../../../../arm-none-eabi/lib/armv7-m\libnosys.a(_exit.o)
                0x00000490                _exit
 .text.jsvObjectIteratorNew.16940.4253
                0x00000494       0x7c C:\Users\apsyvert\AppData\Local\Temp\cc8fH946.ltrans0.ltrans.o
 .text.jsvObjectIteratorGetValue.16944.4250
                0x00000510       0x28 C:\Users\apsyvert\AppData\Local\Temp\cc8fH946.ltrans0.ltrans.o
 .text.jsvObjectIteratorHasValue.16932.4247
                0x00000538       0x24 C:\Users\apsyvert\AppData\Local\Temp\cc8fH946.ltrans0.ltrans.o
 .text.jsvObjectIteratorNext.16950.4244
                0x0000055c       0x48 C:\Users\apsyvert\AppData\Local\Temp\cc8fH946.ltrans0.ltrans.o
 .text.jsvObjectIteratorFree.16953.4241
                0x000005a4       0x18 C:\Users\apsyvert\AppData\Local\Temp\cc8fH946.ltrans0.ltrans.o
 .text.jswrap_string_constructor
                0x000005bc       0x38 C:\Users\apsyvert\AppData\Local\Temp\cc8fH946.ltrans0.ltrans.o
                0x000005bc                jswrap_string_constructor
 .text.jswrap_string_fromCharCode
                0x000005f4       0xa0 C:\Users\apsyvert\AppData\Local\Temp\cc8fH946.ltrans0.ltrans.o
                0x000005f4                jswrap_string_fromCharCode
 .text.jswrap_string_charAt
                0x00000694       0x78 C:\Users\apsyvert\AppData\Local\Temp\cc8fH946.ltrans0.ltrans.o
                0x00000694                jswrap_string_charAt
 .text.jswrap_string_charCodeAt
                0x0000070c       0x20 C:\Users\apsyvert\AppData\Local\Temp\cc8fH946.ltrans0.ltrans.o
                0x0000070c                jswrap_string_charCodeAt
 .text.jswrap_string_indexOf
                0x0000072c      0x138 C:\Users\apsyvert\AppData\Local\Temp\cc8fH946.ltrans0.ltrans.o
                0x0000072c                jswrap_string_indexOf
 .text.jswrap_string_replace
                0x00000864       0x90 C:\Users\apsyvert\AppData\Local\Temp\cc8fH946.ltrans0.ltrans.o
                0x00000864                jswrap_string_replace
 .text.jswrap_string_substring
                0x000008f4       0x7c C:\Users\apsyvert\AppData\Local\Temp\cc8fH946.ltrans0.ltrans.o
                0x000008f4                jswrap_string_substring
 .text.jswrap_string_substr
                0x00000970       0x78 C:\Users\apsyvert\AppData\Local\Temp\cc8fH946.ltrans0.ltrans.o
                0x00000970                jswrap_string_substr
 .text.jswrap_string_slice
                0x000009e8       0x98 C:\Users\apsyvert\AppData\Local\Temp\cc8fH946.ltrans0.ltrans.o
                0x000009e8                jswrap_string_slice
 .text.jswrap_string_split
                0x00000a80      0x10c C:\Users\apsyvert\AppData\Local\Temp\cc8fH946.ltrans0.ltrans.o
                0x00000a80                jswrap_string_split
 .text.jswrap_string_toUpperLowerCase
                0x00000b8c       0xd4 C:\Users\apsyvert\AppData\Local\Temp\cc8fH946.ltrans0.ltrans.o
                0x00000b8c                jswrap_string_toUpperLowerCase
 .text.jswrap_string_trim
                0x00000c60       0xd4 C:\Users\apsyvert\AppData\Local\Temp\cc8fH946.ltrans0.ltrans.o
                0x00000c60                jswrap_string_trim
 .text.jsvGetFirstChild.17059.4186
                0x00000d34       0x18 C:\Users\apsyvert\AppData\Local\Temp\cc8fH946.ltrans0.ltrans.o
 .text.jsvGetNextSibling.17109.4183
                0x00000d4c       0x18 C:\Users\apsyvert\AppData\Local\Temp\cc8fH946.ltrans0.ltrans.o
 .text._jsvGetIntegerAndUnLock.17135.4180
                0x00000d64       0x20 C:\Users\apsyvert\AppData\Local\Temp\cc8fH946.ltrans0.ltrans.o
 .text._jsvGetFloatAndUnLock.17142.4177
                0x00000d84       0x28 C:\Users\apsyvert\AppData\Local\Temp\cc8fH946.ltrans0.ltrans.o
 .text._jsvGetBoolAndUnLock.17132.4174
                0x00000dac       0x24 C:\Users\apsyvert\AppData\Local\Temp\cc8fH946.ltrans0.ltrans.o
 .text.jsvObjectIteratorNew.17122.4170
                0x00000dd0       0x7c C:\Users\apsyvert\AppData\Local\Temp\cc8fH946.ltrans0.ltrans.o
 .text.jsvObjectIteratorGetValue.17129.4167
                0x00000e4c       0x28 C:\Users\apsyvert\AppData\Local\Temp\cc8fH946.ltrans0.ltrans.o
 .text.jsvObjectIteratorHasValue.17112.4164
                0x00000e74       0x24 C:\Users\apsyvert\AppData\Local\Temp\cc8fH946.ltrans0.ltrans.o
 .text.jsvObjectIteratorNext.17126.4161
                0x00000e98       0x48 C:\Users\apsyvert\AppData\Local\Temp\cc8fH946.ltrans0.ltrans.o
 .text.jsvObjectIteratorRemoveAndGotoNext.17138.4157
                0x00000ee0       0x54 C:\Users\apsyvert\AppData\Local\Temp\cc8fH946.ltrans0.ltrans.o
 .text.jsvObjectIteratorFree.17119.4154
                0x00000f34       0x18 C:\Users\apsyvert\AppData\Local\Temp\cc8fH946.ltrans0.ltrans.o
 .text.jswrap_waveform_getBuffer.17145.4149
                0x00000f4c       0x78 C:\Users\apsyvert\AppData\Local\Temp\cc8fH946.ltrans0.ltrans.o
 .text.jswrap_waveform_idle
                0x00000fc4      0x1c4 C:\Users\apsyvert\AppData\Local\Temp\cc8fH946.ltrans0.ltrans.o
                0x00000fc4                jswrap_waveform_idle
 .text.jswrap_waveform_kill
                0x00001188       0xbc C:\Users\apsyvert\AppData\Local\Temp\cc8fH946.ltrans0.ltrans.o
                0x00001188                jswrap_waveform_kill
 .text.jswrap_waveform_constructor
                0x00001244      0x148 C:\Users\apsyvert\AppData\Local\Temp\cc8fH946.ltrans0.ltrans.o
                0x00001244                jswrap_waveform_constructor
 *fill*         0x0000138c        0x4 
 .text.jswrap_waveform_start.17158.4134
                0x00001390      0x268 C:\Users\apsyvert\AppData\Local\Temp\cc8fH946.ltrans0.ltrans.o
 .text.jswrap_waveform_startOutput
                0x000015f8       0x2c C:\Users\apsyvert\AppData\Local\Temp\cc8fH946.ltrans0.ltrans.o
                0x000015f8                jswrap_waveform_startOutput
 .text.jswrap_waveform_startInput
                0x00001624       0x50 C:\Users\apsyvert\AppData\Local\Temp\cc8fH946.ltrans0.ltrans.o
                0x00001624                jswrap_waveform_startInput
 .text.jswrap_waveform_stop
                0x00001674       0x78 C:\Users\apsyvert\AppData\Local\Temp\cc8fH946.ltrans0.ltrans.o
                0x00001674                jswrap_waveform_stop
 .text.jsvGetFirstChild.17302.4114
                0x000016ec       0x18 C:\Users\apsyvert\AppData\Local\Temp\cc8fH946.ltrans0.ltrans.o
 .text.jsvGetNextSibling.17352.4111
                0x00001704       0x18 C:\Users\apsyvert\AppData\Local\Temp\cc8fH946.ltrans0.ltrans.o
 .text._jsvGetFloatAndUnLock.17369.4108
                0x0000171c       0x28 C:\Users\apsyvert\AppData\Local\Temp\cc8fH946.ltrans0.ltrans.o
 .text.jsvObjectIteratorNew.17362.4104
                0x00001744       0x7c C:\Users\apsyvert\AppData\Local\Temp\cc8fH946.ltrans0.ltrans.o
 .text.jsvObjectIteratorGetValue.17366.4101
                0x000017c0       0x28 C:\Users\apsyvert\AppData\Local\Temp\cc8fH946.ltrans0.ltrans.o
 .text.jsvObjectIteratorHasValue.17355.4098
                0x000017e8       0x24 C:\Users\apsyvert\AppData\Local\Temp\cc8fH946.ltrans0.ltrans.o
 .text.jsvObjectIteratorNext.17372.4095
                0x0000180c       0x48 C:\Users\apsyvert\AppData\Local\Temp\cc8fH946.ltrans0.ltrans.o
 .text.jsvObjectIteratorFree.17375.4088
                0x00001854       0x18 C:\Users\apsyvert\AppData\Local\Temp\cc8fH946.ltrans0.ltrans.o
 .text.isNegativeZero.17378.4085
                0x0000186c       0x40 C:\Users\apsyvert\AppData\Local\Temp\cc8fH946.ltrans0.ltrans.o
 .text.jswrap_math_abs
                0x000018ac       0x3c C:\Users\apsyvert\AppData\Local\Temp\cc8fH946.ltrans0.ltrans.o
                0x000018ac                jswrap_math_abs
 .text.jswrap_math_mod
                0x000018e8      0x188 C:\Users\apsyvert\AppData\Local\Temp\cc8fH946.ltrans0.ltrans.o
                0x000018e8                jswrap_math_mod
 .text.jswrap_math_pow
                0x00001a70      0x1d0 C:\Users\apsyvert\AppData\Local\Temp\cc8fH946.ltrans0.ltrans.o
                0x00001a70                jswrap_math_pow
 .text.jswrap_math_round
                0x00001c40       0xc0 C:\Users\apsyvert\AppData\Local\Temp\cc8fH946.ltrans0.ltrans.o
                0x00001c40                jswrap_math_round
 .text.jswrap_math_sqrt
                0x00001d00       0x70 C:\Users\apsyvert\AppData\Local\Temp\cc8fH946.ltrans0.ltrans.o
                0x00001d00                jswrap_math_sqrt
 .text.jswrap_math_clip
                0x00001d70       0x50 C:\Users\apsyvert\AppData\Local\Temp\cc8fH946.ltrans0.ltrans.o
                0x00001d70                jswrap_math_clip
 .text.jswrap_math_minmax
                0x00001dc0       0xf8 C:\Users\apsyvert\AppData\Local\Temp\cc8fH946.ltrans0.ltrans.o
                0x00001dc0                jswrap_math_minmax
 .text.handlePipe.16152.4294
                0x00001eb8      0x1e0 C:\Users\apsyvert\AppData\Local\Temp\cc8fH946.ltrans1.ltrans.o
 .text.jswrap_pipe_idle
                0x00002098       0x80 C:\Users\apsyvert\AppData\Local\Temp\cc8fH946.ltrans1.ltrans.o
                0x00002098                jswrap_pipe_idle
 .text.jswrap_pipe_kill
                0x00002118       0x28 C:\Users\apsyvert\AppData\Local\Temp\cc8fH946.ltrans1.ltrans.o
                0x00002118                jswrap_pipe_kill
 .text.jswrap_pipe_drain_listener.16144.4280
                0x00002140       0xa8 C:\Users\apsyvert\AppData\Local\Temp\cc8fH946.ltrans1.ltrans.o
 .text.jswrap_pipe_close_listener.16161.4286
                0x000021e8       0xa0 C:\Users\apsyvert\AppData\Local\Temp\cc8fH946.ltrans1.ltrans.o
 .text.jswrap_pipe_src_close_listener.16165.4277
                0x00002288       0x1c C:\Users\apsyvert\AppData\Local\Temp\cc8fH946.ltrans1.ltrans.o
 .text.jswrap_pipe_dst_close_listener.16168.4283
                0x000022a4       0x1c C:\Users\apsyvert\AppData\Local\Temp\cc8fH946.ltrans1.ltrans.o
 .text.jswrap_pipe
                0x000022c0      0x230 C:\Users\apsyvert\AppData\Local\Temp\cc8fH946.ltrans1.ltrans.o
                0x000022c0                jswrap_pipe
 .text.jswrap_process_env
                0x000024f0      0x1a0 C:\Users\apsyvert\AppData\Local\Temp\cc8fH946.ltrans1.ltrans.o
                0x000024f0                jswrap_process_env
 .text.jswrap_process_memory
                0x00002690      0x144 C:\Users\apsyvert\AppData\Local\Temp\cc8fH946.ltrans1.ltrans.o
                0x00002690                jswrap_process_memory
 .text.jshUSARTInitInfo.16388.4252
                0x000027d4       0x58 C:\Users\apsyvert\AppData\Local\Temp\cc8fH946.ltrans1.ltrans.o
 .text.jswrap_serial_setup
                0x0000282c      0x2dc C:\Users\apsyvert\AppData\Local\Temp\cc8fH946.ltrans1.ltrans.o
                0x0000282c                jswrap_serial_setup
 .text._jswrap_serial_print_cb.16404.4243
                0x00002b08       0x24 C:\Users\apsyvert\AppData\Local\Temp\cc8fH946.ltrans1.ltrans.o
 .text._jswrap_serial_print.4237
                0x00002b2c       0x7c C:\Users\apsyvert\AppData\Local\Temp\cc8fH946.ltrans1.ltrans.o
 .text.jswrap_serial_print
                0x00002ba8       0x1c C:\Users\apsyvert\AppData\Local\Temp\cc8fH946.ltrans1.ltrans.o
                0x00002ba8                jswrap_serial_print
 .text.jswrap_serial_println
                0x00002bc4       0x1c C:\Users\apsyvert\AppData\Local\Temp\cc8fH946.ltrans1.ltrans.o
                0x00002bc4                jswrap_serial_println
 .text.jswrap_serial_write
                0x00002be0       0x1c C:\Users\apsyvert\AppData\Local\Temp\cc8fH946.ltrans1.ltrans.o
                0x00002be0                jswrap_serial_write
 .text.jswrap_serial_onData
                0x00002bfc       0x1c C:\Users\apsyvert\AppData\Local\Temp\cc8fH946.ltrans1.ltrans.o
                0x00002bfc                jswrap_serial_onData
 .text.jsvNewFromEmptyString.16597.4218
                0x00002c18       0x18 C:\Users\apsyvert\AppData\Local\Temp\cc8fH946.ltrans1.ltrans.o
 .text._jsvGetIntegerAndUnLock.16623.4215
                0x00002c30       0x20 C:\Users\apsyvert\AppData\Local\Temp\cc8fH946.ltrans1.ltrans.o
 .text._jsvGetBoolAndUnLock.16626.4212
                0x00002c50       0x24 C:\Users\apsyvert\AppData\Local\Temp\cc8fH946.ltrans1.ltrans.o
 .text.jshSPIInitInfo.16512.4209
                0x00002c74       0x54 C:\Users\apsyvert\AppData\Local\Temp\cc8fH946.ltrans1.ltrans.o
 .text.jshI2CInitInfo.16529.4200
                0x00002cc8       0x38 C:\Users\apsyvert\AppData\Local\Temp\cc8fH946.ltrans1.ltrans.o
 .text.jsvStringIteratorGetChar.16537.4197
                0x00002d00       0x2c C:\Users\apsyvert\AppData\Local\Temp\cc8fH946.ltrans1.ltrans.o
 .text.jsvStringIteratorHasChar.16594.4194
                0x00002d2c       0x28 C:\Users\apsyvert\AppData\Local\Temp\cc8fH946.ltrans1.ltrans.o
 .text.jsvStringIteratorFree.16599.4191
                0x00002d54       0x18 C:\Users\apsyvert\AppData\Local\Temp\cc8fH946.ltrans1.ltrans.o
 .text.jswrap_spi_constructor
                0x00002d6c       0x10 C:\Users\apsyvert\AppData\Local\Temp\cc8fH946.ltrans1.ltrans.o
                0x00002d6c                jswrap_spi_constructor
 .text.jswrap_spi_setup
                0x00002d7c       0xac C:\Users\apsyvert\AppData\Local\Temp\cc8fH946.ltrans1.ltrans.o
                0x00002d7c                jswrap_spi_setup
 .text.jswrap_spi_send_cb.4152
                0x00002e28       0x5c C:\Users\apsyvert\AppData\Local\Temp\cc8fH946.ltrans1.ltrans.o
 .text.jswrap_spi_send
                0x00002e84      0x250 C:\Users\apsyvert\AppData\Local\Temp\cc8fH946.ltrans1.ltrans.o
                0x00002e84                jswrap_spi_send
 .text.jswrap_spi_write
                0x000030d4       0xfc C:\Users\apsyvert\AppData\Local\Temp\cc8fH946.ltrans1.ltrans.o
                0x000030d4                jswrap_spi_write
 .text.jswrap_spi_send4bit
                0x000031d0      0x18c C:\Users\apsyvert\AppData\Local\Temp\cc8fH946.ltrans1.ltrans.o
                0x000031d0                jswrap_spi_send4bit
 .text.jswrap_spi_send8bit
                0x0000335c      0x188 C:\Users\apsyvert\AppData\Local\Temp\cc8fH946.ltrans1.ltrans.o
                0x0000335c                jswrap_spi_send8bit
 .text.jswrap_i2c_setup
                0x000034e4       0xc0 C:\Users\apsyvert\AppData\Local\Temp\cc8fH946.ltrans1.ltrans.o
                0x000034e4                jswrap_i2c_setup
 .text.i2c_get_address.16662.4119
                0x000035a4       0x6c C:\Users\apsyvert\AppData\Local\Temp\cc8fH946.ltrans1.ltrans.o
 .text.jswrap_i2c_writeTo
                0x00003610       0xd4 C:\Users\apsyvert\AppData\Local\Temp\cc8fH946.ltrans1.ltrans.o
                0x00003610                jswrap_i2c_writeTo
 .text.jswrap_i2c_readFrom
                0x000036e4      0x100 C:\Users\apsyvert\AppData\Local\Temp\cc8fH946.ltrans1.ltrans.o
                0x000036e4                jswrap_i2c_readFrom
 .text.jsvNewFromEmptyString.16773.4106
                0x000037e4       0x18 C:\Users\apsyvert\AppData\Local\Temp\cc8fH946.ltrans1.ltrans.o
 .text.jswrap_stream_available
                0x000037fc       0x58 C:\Users\apsyvert\AppData\Local\Temp\cc8fH946.ltrans1.ltrans.o
                0x000037fc                jswrap_stream_available
 .text.jswrap_stream_read
                0x00003854       0xa8 C:\Users\apsyvert\AppData\Local\Temp\cc8fH946.ltrans1.ltrans.o
                0x00003854                jswrap_stream_read
 .text.jswrap_stream_pushData
                0x000038fc      0x158 C:\Users\apsyvert\AppData\Local\Temp\cc8fH946.ltrans1.ltrans.o
                0x000038fc                jswrap_stream_pushData
 .text.isWhitespace.16858
                0x00003a54       0x4c C:\Users\apsyvert\AppData\Local\Temp\cc8fH946.ltrans1.ltrans.o
                0x00003a54                isWhitespace.16858
 .text.jsvGetFirstChild.16864
                0x00003aa0       0x18 C:\Users\apsyvert\AppData\Local\Temp\cc8fH946.ltrans1.ltrans.o
                0x00003aa0                jsvGetFirstChild.16864
 .text.jsvGetNextSibling.16912
                0x00003ab8       0x18 C:\Users\apsyvert\AppData\Local\Temp\cc8fH946.ltrans1.ltrans.o
                0x00003ab8                jsvGetNextSibling.16912
 .text.jsvNewFromEmptyString.16938
                0x00003ad0       0x18 C:\Users\apsyvert\AppData\Local\Temp\cc8fH946.ltrans1.ltrans.o
                0x00003ad0                jsvNewFromEmptyString.16938
 .text._jsvGetIntegerAndUnLock.16947
                0x00003ae8       0x20 C:\Users\apsyvert\AppData\Local\Temp\cc8fH946.ltrans1.ltrans.o
                0x00003ae8                _jsvGetIntegerAndUnLock.16947
 .text.jsvStringIteratorGetChar.16915
                0x00003b08       0x2c C:\Users\apsyvert\AppData\Local\Temp\cc8fH946.ltrans1.ltrans.o
                0x00003b08                jsvStringIteratorGetChar.16915
 .text.jsvStringIteratorHasChar.16926
                0x00003b34       0x28 C:\Users\apsyvert\AppData\Local\Temp\cc8fH946.ltrans1.ltrans.o
                0x00003b34                jsvStringIteratorHasChar.16926
 .text.jsvStringIteratorGetIndex.16929
                0x00003b5c       0x20 C:\Users\apsyvert\AppData\Local\Temp\cc8fH946.ltrans1.ltrans.o
                0x00003b5c                jsvStringIteratorGetIndex.16929
 .text.jsvStringIteratorFree.16956
                0x00003b7c       0x18 C:\Users\apsyvert\AppData\Local\Temp\cc8fH946.ltrans1.ltrans.o
                0x00003b7c                jsvStringIteratorFree.16956
 .text.jswrap_object_on
                0x00003b94      0x164 C:\Users\apsyvert\AppData\Local\Temp\cc8fH946.ltrans2.ltrans.o
                0x00003b94                jswrap_object_on
 .text.jswrap_object_emit
                0x00003cf8      0x158 C:\Users\apsyvert\AppData\Local\Temp\cc8fH946.ltrans2.ltrans.o
                0x00003cf8                jswrap_object_emit
 .text.jswrap_object_removeAllListeners
                0x00003e50       0xf0 C:\Users\apsyvert\AppData\Local\Temp\cc8fH946.ltrans2.ltrans.o
                0x00003e50                jswrap_object_removeAllListeners
 .text.jswrap_object_removeAllListeners_cstr.4175
                0x00003f40       0x2c C:\Users\apsyvert\AppData\Local\Temp\cc8fH946.ltrans2.ltrans.o
 .text.jswrap_function_replaceWith
                0x00003f6c       0xcc C:\Users\apsyvert\AppData\Local\Temp\cc8fH946.ltrans2.ltrans.o
                0x00003f6c                jswrap_function_replaceWith
 .text.jswrap_function_apply_or_call
                0x00004038      0x158 C:\Users\apsyvert\AppData\Local\Temp\cc8fH946.ltrans2.ltrans.o
                0x00004038                jswrap_function_apply_or_call
 .text.jswrap_function_bind
                0x00004190      0x280 C:\Users\apsyvert\AppData\Local\Temp\cc8fH946.ltrans2.ltrans.o
                0x00004190                jswrap_function_bind
 .text.jsvStringIteratorGetChar.15900.4157
                0x00004410       0x2c C:\Users\apsyvert\AppData\Local\Temp\cc8fH946.ltrans2.ltrans.o
 .text.jsvStringIteratorFree.15958.4146
                0x0000443c       0x18 C:\Users\apsyvert\AppData\Local\Temp\cc8fH946.ltrans2.ltrans.o
 .text.onewire_getpin.15961.4143
                0x00004454       0x28 C:\Users\apsyvert\AppData\Local\Temp\cc8fH946.ltrans2.ltrans.o
 .text.OneWireReset.15965.4140
                0x0000447c       0x6c C:\Users\apsyvert\AppData\Local\Temp\cc8fH946.ltrans2.ltrans.o
 .text.OneWireRead.15969.4136
                0x000044e8       0x80 C:\Users\apsyvert\AppData\Local\Temp\cc8fH946.ltrans2.ltrans.o
 .text.OneWireWrite.15973.4131
                0x00004568       0xb0 C:\Users\apsyvert\AppData\Local\Temp\cc8fH946.ltrans2.ltrans.o
 .text.jswrap_onewire_constructor
                0x00004618       0x44 C:\Users\apsyvert\AppData\Local\Temp\cc8fH946.ltrans2.ltrans.o
                0x00004618                jswrap_onewire_constructor
 .text.jswrap_onewire_reset
                0x0000465c       0x3c C:\Users\apsyvert\AppData\Local\Temp\cc8fH946.ltrans2.ltrans.o
                0x0000465c                jswrap_onewire_reset
 .text.jswrap_onewire_select
                0x00004698      0x138 C:\Users\apsyvert\AppData\Local\Temp\cc8fH946.ltrans2.ltrans.o
                0x00004698                jswrap_onewire_select
 .text.jswrap_onewire_skip
                0x000047d0       0x40 C:\Users\apsyvert\AppData\Local\Temp\cc8fH946.ltrans2.ltrans.o
                0x000047d0                jswrap_onewire_skip
 .text._jswrap_onewire_write_cb.4113
                0x00004810       0x24 C:\Users\apsyvert\AppData\Local\Temp\cc8fH946.ltrans2.ltrans.o
 .text.jswrap_onewire_write
                0x00004834       0x78 C:\Users\apsyvert\AppData\Local\Temp\cc8fH946.ltrans2.ltrans.o
                0x00004834                jswrap_onewire_write
 .text.jswrap_onewire_read
                0x000048ac       0xc4 C:\Users\apsyvert\AppData\Local\Temp\cc8fH946.ltrans2.ltrans.o
                0x000048ac                jswrap_onewire_read
 .text.jswrap_onewire_search
                0x00004970      0x2a8 C:\Users\apsyvert\AppData\Local\Temp\cc8fH946.ltrans2.ltrans.o
                0x00004970                jswrap_onewire_search
 .text.jsvGetFirstChild.16062.4096
                0x00004c18       0x18 C:\Users\apsyvert\AppData\Local\Temp\cc8fH946.ltrans2.ltrans.o
 .text.jsvGetNextSibling.16112.4093
                0x00004c30       0x18 C:\Users\apsyvert\AppData\Local\Temp\cc8fH946.ltrans2.ltrans.o
 .text._jsvGetBoolAndUnLock.16125
                0x00004c48       0x24 C:\Users\apsyvert\AppData\Local\Temp\cc8fH946.ltrans2.ltrans.o
                0x00004c48                _jsvGetBoolAndUnLock.16125
 .text.jsvObjectIteratorNew.16131
                0x00004c6c       0x7c C:\Users\apsyvert\AppData\Local\Temp\cc8fH946.ltrans2.ltrans.o
                0x00004c6c                jsvObjectIteratorNew.16131
 .text.jsvObjectIteratorGetKey.16128.4083
                0x00004ce8       0x28 C:\Users\apsyvert\AppData\Local\Temp\cc8fH946.ltrans2.ltrans.o
 .text.jsvObjectIteratorGetValue.16138
                0x00004d10       0x28 C:\Users\apsyvert\AppData\Local\Temp\cc8fH946.ltrans2.ltrans.o
                0x00004d10                jsvObjectIteratorGetValue.16138
 .text.jsvObjectIteratorHasValue.16115
                0x00004d38       0x24 C:\Users\apsyvert\AppData\Local\Temp\cc8fH946.ltrans2.ltrans.o
                0x00004d38                jsvObjectIteratorHasValue.16115
 .text.jsvObjectIteratorNext.16135
                0x00004d5c       0x48 C:\Users\apsyvert\AppData\Local\Temp\cc8fH946.ltrans2.ltrans.o
                0x00004d5c                jsvObjectIteratorNext.16135
 .text.jsvObjectIteratorFree.16122
                0x00004da4       0x18 C:\Users\apsyvert\AppData\Local\Temp\cc8fH946.ltrans2.ltrans.o
                0x00004da4                jsvObjectIteratorFree.16122
 .text.pipeGetArray.16141
                0x00004dbc       0x38 C:\Users\apsyvert\AppData\Local\Temp\cc8fH946.ltrans2.ltrans.o
                0x00004dbc                pipeGetArray.16141
 .text.handlePipeClose.16147
                0x00004df4      0x1dc C:\Users\apsyvert\AppData\Local\Temp\cc8fH946.ltrans2.ltrans.o
                0x00004df4                handlePipeClose.16147
 .text.jsfGetJSONForFunctionWithCallback
                0x00004fd0      0x1b8 C:\Users\apsyvert\AppData\Local\Temp\cc8fH946.ltrans3.ltrans.o
                0x00004fd0                jsfGetJSONForFunctionWithCallback
 .text.jsonNeedsNewLine.4278
                0x00005188       0x54 C:\Users\apsyvert\AppData\Local\Temp\cc8fH946.ltrans3.ltrans.o
 .text.jsonNewLine.4273
                0x000051dc       0x44 C:\Users\apsyvert\AppData\Local\Temp\cc8fH946.ltrans3.ltrans.o
 .text.jsfGetJSONWithCallback
                0x00005220      0x76c C:\Users\apsyvert\AppData\Local\Temp\cc8fH946.ltrans3.ltrans.o
                0x00005220                jsfGetJSONWithCallback
 .text.jsfGetJSON
                0x0000598c       0x70 C:\Users\apsyvert\AppData\Local\Temp\cc8fH946.ltrans3.ltrans.o
                0x0000598c                jsfGetJSON
 .text.jsfPrintJSON
                0x000059fc       0x24 C:\Users\apsyvert\AppData\Local\Temp\cc8fH946.ltrans3.ltrans.o
                0x000059fc                jsfPrintJSON
 .text.jsvGetFirstChild.15219.4239
                0x00005a20       0x18 C:\Users\apsyvert\AppData\Local\Temp\cc8fH946.ltrans3.ltrans.o
 .text.jsvGetNextSibling.15269.4236
                0x00005a38       0x18 C:\Users\apsyvert\AppData\Local\Temp\cc8fH946.ltrans3.ltrans.o
 .text.jsvObjectIteratorNew.15282.4232
                0x00005a50       0x7c C:\Users\apsyvert\AppData\Local\Temp\cc8fH946.ltrans3.ltrans.o
 .text.jsvObjectIteratorGetKey.15289.4229
                0x00005acc       0x28 C:\Users\apsyvert\AppData\Local\Temp\cc8fH946.ltrans3.ltrans.o
 .text.jsvObjectIteratorHasValue.15272.4226
                0x00005af4       0x24 C:\Users\apsyvert\AppData\Local\Temp\cc8fH946.ltrans3.ltrans.o
 .text.jsvObjectIteratorNext.15286.4223
                0x00005b18       0x48 C:\Users\apsyvert\AppData\Local\Temp\cc8fH946.ltrans3.ltrans.o
 .text.jsvObjectIteratorFree.15279.4220
                0x00005b60       0x18 C:\Users\apsyvert\AppData\Local\Temp\cc8fH946.ltrans3.ltrans.o
 .text.jswrap_modules_getModuleList.15292.4218
                0x00005b78       0x20 C:\Users\apsyvert\AppData\Local\Temp\cc8fH946.ltrans3.ltrans.o
 .text.jswrap_require
                0x00005b98      0x108 C:\Users\apsyvert\AppData\Local\Temp\cc8fH946.ltrans3.ltrans.o
                0x00005b98                jswrap_require
 .text.jswrap_modules_getCached
                0x00005ca0       0x88 C:\Users\apsyvert\AppData\Local\Temp\cc8fH946.ltrans3.ltrans.o
                0x00005ca0                jswrap_modules_getCached
 .text.jswrap_modules_removeCached
                0x00005d28       0x6c C:\Users\apsyvert\AppData\Local\Temp\cc8fH946.ltrans3.ltrans.o
                0x00005d28                jswrap_modules_removeCached
 .text.jswrap_modules_removeAllCached
                0x00005d94       0x24 C:\Users\apsyvert\AppData\Local\Temp\cc8fH946.ltrans3.ltrans.o
                0x00005d94                jswrap_modules_removeAllCached
 .text.jswrap_modules_addCached
                0x00005db8       0x94 C:\Users\apsyvert\AppData\Local\Temp\cc8fH946.ltrans3.ltrans.o
                0x00005db8                jswrap_modules_addCached
 .text.jswrap_pin_constructor
                0x00005e4c       0x3c C:\Users\apsyvert\AppData\Local\Temp\cc8fH946.ltrans3.ltrans.o
                0x00005e4c                jswrap_pin_constructor
 .text.jswrap_pin_read
                0x00005e88       0x24 C:\Users\apsyvert\AppData\Local\Temp\cc8fH946.ltrans3.ltrans.o
                0x00005e88                jswrap_pin_read
 .text.jswrap_pin_set
                0x00005eac       0x24 C:\Users\apsyvert\AppData\Local\Temp\cc8fH946.ltrans3.ltrans.o
                0x00005eac                jswrap_pin_set
 .text.jswrap_pin_reset
                0x00005ed0       0x24 C:\Users\apsyvert\AppData\Local\Temp\cc8fH946.ltrans3.ltrans.o
                0x00005ed0                jswrap_pin_reset
 .text.jswrap_pin_write
                0x00005ef4       0x28 C:\Users\apsyvert\AppData\Local\Temp\cc8fH946.ltrans3.ltrans.o
                0x00005ef4                jswrap_pin_write
 .text.jswrap_pin_writeAtTime
                0x00005f1c       0x58 C:\Users\apsyvert\AppData\Local\Temp\cc8fH946.ltrans3.ltrans.o
                0x00005f1c                jswrap_pin_writeAtTime
 .text.jswrap_pin_getMode
                0x00005f74       0x20 C:\Users\apsyvert\AppData\Local\Temp\cc8fH946.ltrans3.ltrans.o
                0x00005f74                jswrap_pin_getMode
 .text.jswrap_pin_mode
                0x00005f94       0x20 C:\Users\apsyvert\AppData\Local\Temp\cc8fH946.ltrans3.ltrans.o
                0x00005f94                jswrap_pin_mode
 .text.jswrap_pin_getInfo
                0x00005fb4      0x200 C:\Users\apsyvert\AppData\Local\Temp\cc8fH946.ltrans3.ltrans.o
                0x00005fb4                jswrap_pin_getInfo
 .text.jswrap_number_constructor
                0x000061b4      0x12c C:\Users\apsyvert\AppData\Local\Temp\cc8fH946.ltrans3.ltrans.o
                0x000061b4                jswrap_number_constructor
 .text.jswrap_number_toFixed
                0x000062e0       0x54 C:\Users\apsyvert\AppData\Local\Temp\cc8fH946.ltrans3.ltrans.o
                0x000062e0                jswrap_number_toFixed
 .text.itostr.15648.4158
                0x00006334       0x20 C:\Users\apsyvert\AppData\Local\Temp\cc8fH946.ltrans3.ltrans.o
 .text.jsvGetFirstChild.15574.4155
                0x00006354       0x18 C:\Users\apsyvert\AppData\Local\Temp\cc8fH946.ltrans3.ltrans.o
 .text.jsvGetNextSibling.15624.4152
                0x0000636c       0x18 C:\Users\apsyvert\AppData\Local\Temp\cc8fH946.ltrans3.ltrans.o
 .text.jsvNewFromEmptyString.15637
                0x00006384       0x18 C:\Users\apsyvert\AppData\Local\Temp\cc8fH946.ltrans3.ltrans.o
                0x00006384                jsvNewFromEmptyString.15637
 .text._jsvGetIntegerAndUnLock.15645
                0x0000639c       0x20 C:\Users\apsyvert\AppData\Local\Temp\cc8fH946.ltrans3.ltrans.o
                0x0000639c                _jsvGetIntegerAndUnLock.15645
 .text.jsvObjectIteratorNew.15653
                0x000063bc       0x7c C:\Users\apsyvert\AppData\Local\Temp\cc8fH946.ltrans3.ltrans.o
                0x000063bc                jsvObjectIteratorNew.15653
 .text.jsvObjectIteratorGetKey.15634
                0x00006438       0x28 C:\Users\apsyvert\AppData\Local\Temp\cc8fH946.ltrans3.ltrans.o
                0x00006438                jsvObjectIteratorGetKey.15634
 .text.jsvObjectIteratorGetValue.15639
                0x00006460       0x28 C:\Users\apsyvert\AppData\Local\Temp\cc8fH946.ltrans3.ltrans.o
                0x00006460                jsvObjectIteratorGetValue.15639
 .text.jsvObjectIteratorHasValue.15627
                0x00006488       0x24 C:\Users\apsyvert\AppData\Local\Temp\cc8fH946.ltrans3.ltrans.o
                0x00006488                jsvObjectIteratorHasValue.15627
 .text.jsvObjectIteratorNext.15657
                0x000064ac       0x48 C:\Users\apsyvert\AppData\Local\Temp\cc8fH946.ltrans3.ltrans.o
                0x000064ac                jsvObjectIteratorNext.15657
 .text.jsvObjectIteratorFree.15642
                0x000064f4       0x18 C:\Users\apsyvert\AppData\Local\Temp\cc8fH946.ltrans3.ltrans.o
                0x000064f4                jsvObjectIteratorFree.15642
 .text.jswrap_object_constructor
                0x0000650c       0x9c C:\Users\apsyvert\AppData\Local\Temp\cc8fH946.ltrans3.ltrans.o
                0x0000650c                jswrap_object_constructor
 .text.jswrap_object_length
                0x000065a8       0x88 C:\Users\apsyvert\AppData\Local\Temp\cc8fH946.ltrans3.ltrans.o
                0x000065a8                jswrap_object_length
 .text.jswrap_object_valueOf
                0x00006630       0x30 C:\Users\apsyvert\AppData\Local\Temp\cc8fH946.ltrans3.ltrans.o
                0x00006630                jswrap_object_valueOf
 .text.jswrap_object_toString
                0x00006660       0xa0 C:\Users\apsyvert\AppData\Local\Temp\cc8fH946.ltrans3.ltrans.o
                0x00006660                jswrap_object_toString
 .text.jswrap_object_clone
                0x00006700       0x18 C:\Users\apsyvert\AppData\Local\Temp\cc8fH946.ltrans3.ltrans.o
                0x00006700                jswrap_object_clone
 .text.jswrap_object_keys_or_property_names_cb
                0x00006718      0x1a8 C:\Users\apsyvert\AppData\Local\Temp\cc8fH946.ltrans3.ltrans.o
                0x00006718                jswrap_object_keys_or_property_names_cb
 .text.jswrap_object_keys_or_property_names
                0x000068c0       0x44 C:\Users\apsyvert\AppData\Local\Temp\cc8fH946.ltrans3.ltrans.o
                0x000068c0                jswrap_object_keys_or_property_names
 .text.jswrap_object_create
                0x00006904       0x8c C:\Users\apsyvert\AppData\Local\Temp\cc8fH946.ltrans3.ltrans.o
                0x00006904                jswrap_object_create
 .text.jswrap_object_getOwnPropertyDescriptor
                0x00006990      0x130 C:\Users\apsyvert\AppData\Local\Temp\cc8fH946.ltrans3.ltrans.o
                0x00006990                jswrap_object_getOwnPropertyDescriptor
 .text.jswrap_object_hasOwnProperty
                0x00006ac0       0xb4 C:\Users\apsyvert\AppData\Local\Temp\cc8fH946.ltrans3.ltrans.o
                0x00006ac0                jswrap_object_hasOwnProperty
 .text.jswrap_object_defineProperty
                0x00006b74       0xac C:\Users\apsyvert\AppData\Local\Temp\cc8fH946.ltrans3.ltrans.o
                0x00006b74                jswrap_object_defineProperty
 .text.jswrap_object_defineProperties
                0x00006c20       0xc4 C:\Users\apsyvert\AppData\Local\Temp\cc8fH946.ltrans3.ltrans.o
                0x00006c20                jswrap_object_defineProperties
 .text.jswrap_boolean_constructor
                0x00006ce4       0x18 C:\Users\apsyvert\AppData\Local\Temp\cc8fH946.ltrans3.ltrans.o
                0x00006ce4                jswrap_boolean_constructor
 .text.jswrap_object_addEventListener
                0x00006cfc       0x3c C:\Users\apsyvert\AppData\Local\Temp\cc8fH946.ltrans3.ltrans.o
                0x00006cfc                jswrap_object_addEventListener
 .text.jsvObjectIteratorNew.14483.4302
                0x00006d38       0x7c C:\Users\apsyvert\AppData\Local\Temp\cc8fH946.ltrans4.ltrans.o
 .text.jsvObjectIteratorGetValue.14490.4299
                0x00006db4       0x28 C:\Users\apsyvert\AppData\Local\Temp\cc8fH946.ltrans4.ltrans.o
 .text.jsvObjectIteratorHasValue.14473.4296
                0x00006ddc       0x24 C:\Users\apsyvert\AppData\Local\Temp\cc8fH946.ltrans4.ltrans.o
 .text.jsvObjectIteratorNext.14487.4293
                0x00006e00       0x48 C:\Users\apsyvert\AppData\Local\Temp\cc8fH946.ltrans4.ltrans.o
 .text.jsvObjectIteratorRemoveAndGotoNext.14500.4289
                0x00006e48       0x54 C:\Users\apsyvert\AppData\Local\Temp\cc8fH946.ltrans4.ltrans.o
 .text.jsvObjectIteratorFree.14480.4286
                0x00006e9c       0x18 C:\Users\apsyvert\AppData\Local\Temp\cc8fH946.ltrans4.ltrans.o
 .text.jswrap_interface_setBusyIndicator
                0x00006eb4       0x54 C:\Users\apsyvert\AppData\Local\Temp\cc8fH946.ltrans4.ltrans.o
                0x00006eb4                jswrap_interface_setBusyIndicator
 .text.jswrap_interface_setSleepIndicator
                0x00006f08       0x54 C:\Users\apsyvert\AppData\Local\Temp\cc8fH946.ltrans4.ltrans.o
                0x00006f08                jswrap_interface_setSleepIndicator
 .text.jswrap_interface_setDeepSleep
                0x00006f5c       0x3c C:\Users\apsyvert\AppData\Local\Temp\cc8fH946.ltrans4.ltrans.o
                0x00006f5c                jswrap_interface_setDeepSleep
 .text.jswrap_interface_trace
                0x00006f98       0x34 C:\Users\apsyvert\AppData\Local\Temp\cc8fH946.ltrans4.ltrans.o
                0x00006f98                jswrap_interface_trace
 .text.jswrap_interface_print
                0x00006fcc       0xbc C:\Users\apsyvert\AppData\Local\Temp\cc8fH946.ltrans4.ltrans.o
                0x00006fcc                jswrap_interface_print
 .text.jswrap_interface_edit
                0x00007088      0x154 C:\Users\apsyvert\AppData\Local\Temp\cc8fH946.ltrans4.ltrans.o
                0x00007088                jswrap_interface_edit
 .text.jswrap_interface_echo
                0x000071dc       0x3c C:\Users\apsyvert\AppData\Local\Temp\cc8fH946.ltrans4.ltrans.o
                0x000071dc                jswrap_interface_echo
 .text.jswrap_interactive_setTime
                0x00007218       0x48 C:\Users\apsyvert\AppData\Local\Temp\cc8fH946.ltrans4.ltrans.o
                0x00007218                jswrap_interactive_setTime
 .text.jswrap_interface_getSerial
                0x00007260       0x84 C:\Users\apsyvert\AppData\Local\Temp\cc8fH946.ltrans4.ltrans.o
                0x00007260                jswrap_interface_getSerial
 *fill*         0x000072e4        0x4 
 .text._jswrap_interface_setTimeoutOrInterval.4254
                0x000072e8      0x128 C:\Users\apsyvert\AppData\Local\Temp\cc8fH946.ltrans4.ltrans.o
 .text.jswrap_interface_setInterval
                0x00007410       0x28 C:\Users\apsyvert\AppData\Local\Temp\cc8fH946.ltrans4.ltrans.o
                0x00007410                jswrap_interface_setInterval
 .text.jswrap_interface_setTimeout
                0x00007438       0x28 C:\Users\apsyvert\AppData\Local\Temp\cc8fH946.ltrans4.ltrans.o
                0x00007438                jswrap_interface_setTimeout
 .text._jswrap_interface_clearTimeoutOrInterval.4240
                0x00007460      0x108 C:\Users\apsyvert\AppData\Local\Temp\cc8fH946.ltrans4.ltrans.o
 .text.jswrap_interface_clearInterval
                0x00007568       0x18 C:\Users\apsyvert\AppData\Local\Temp\cc8fH946.ltrans4.ltrans.o
                0x00007568                jswrap_interface_clearInterval
 .text.jswrap_interface_clearTimeout
                0x00007580       0x18 C:\Users\apsyvert\AppData\Local\Temp\cc8fH946.ltrans4.ltrans.o
                0x00007580                jswrap_interface_clearTimeout
 .text.jswrap_interface_changeInterval
                0x00007598      0x100 C:\Users\apsyvert\AppData\Local\Temp\cc8fH946.ltrans4.ltrans.o
                0x00007598                jswrap_interface_changeInterval
 .text.jsvGetFirstChild.14666.4226
                0x00007698       0x18 C:\Users\apsyvert\AppData\Local\Temp\cc8fH946.ltrans4.ltrans.o
 .text.jsvGetLastChild.14716.4223
                0x000076b0       0x18 C:\Users\apsyvert\AppData\Local\Temp\cc8fH946.ltrans4.ltrans.o
 .text.jsvGetNextSibling.14719.4220
                0x000076c8       0x18 C:\Users\apsyvert\AppData\Local\Temp\cc8fH946.ltrans4.ltrans.o
 .text.jsvGetPrevSibling.14722.4217
                0x000076e0       0x18 C:\Users\apsyvert\AppData\Local\Temp\cc8fH946.ltrans4.ltrans.o
 .text._jsvGetFloatAndUnLock.14732.4214
                0x000076f8       0x28 C:\Users\apsyvert\AppData\Local\Temp\cc8fH946.ltrans4.ltrans.o
 .text._jsvGetBoolAndUnLock.14738.4211
                0x00007720       0x24 C:\Users\apsyvert\AppData\Local\Temp\cc8fH946.ltrans4.ltrans.o
 .text.jsvObjectIteratorNew.14747.4207
                0x00007744       0x7c C:\Users\apsyvert\AppData\Local\Temp\cc8fH946.ltrans4.ltrans.o
 .text.jsvObjectIteratorGetValue.14744.4204
                0x000077c0       0x28 C:\Users\apsyvert\AppData\Local\Temp\cc8fH946.ltrans4.ltrans.o
 .text.jsvObjectIteratorHasValue.14725.4201
                0x000077e8       0x24 C:\Users\apsyvert\AppData\Local\Temp\cc8fH946.ltrans4.ltrans.o
 .text.jsvObjectIteratorNext.14741.4198
                0x0000780c       0x48 C:\Users\apsyvert\AppData\Local\Temp\cc8fH946.ltrans4.ltrans.o
 .text.jsvObjectIteratorFree.14735.4195
                0x00007854       0x18 C:\Users\apsyvert\AppData\Local\Temp\cc8fH946.ltrans4.ltrans.o
 .text._jswrap_io_peek.4191
                0x0000786c       0x48 C:\Users\apsyvert\AppData\Local\Temp\cc8fH946.ltrans4.ltrans.o
 .text.jswrap_io_peek
                0x000078b4       0xc8 C:\Users\apsyvert\AppData\Local\Temp\cc8fH946.ltrans4.ltrans.o
                0x000078b4                jswrap_io_peek
 .text._jswrap_io_poke.4180
                0x0000797c       0x44 C:\Users\apsyvert\AppData\Local\Temp\cc8fH946.ltrans4.ltrans.o
 .text.jswrap_io_poke
                0x000079c0       0x90 C:\Users\apsyvert\AppData\Local\Temp\cc8fH946.ltrans4.ltrans.o
                0x000079c0                jswrap_io_poke
 .text.jswrap_io_analogWrite
                0x00007a50       0xb0 C:\Users\apsyvert\AppData\Local\Temp\cc8fH946.ltrans4.ltrans.o
                0x00007a50                jswrap_io_analogWrite
 .text.jswrap_io_digitalPulse
                0x00007b00      0x124 C:\Users\apsyvert\AppData\Local\Temp\cc8fH946.ltrans4.ltrans.o
                0x00007b00                jswrap_io_digitalPulse
 .text.jswrap_io_digitalWrite
                0x00007c24       0xa0 C:\Users\apsyvert\AppData\Local\Temp\cc8fH946.ltrans4.ltrans.o
                0x00007c24                jswrap_io_digitalWrite
 .text.jswrap_io_digitalRead
                0x00007cc4       0xa8 C:\Users\apsyvert\AppData\Local\Temp\cc8fH946.ltrans4.ltrans.o
                0x00007cc4                jswrap_io_digitalRead
 .text.jswrap_io_pinMode
                0x00007d6c      0x148 C:\Users\apsyvert\AppData\Local\Temp\cc8fH946.ltrans4.ltrans.o
                0x00007d6c                jswrap_io_pinMode
 .text.jswrap_io_getPinMode
                0x00007eb4       0xd8 C:\Users\apsyvert\AppData\Local\Temp\cc8fH946.ltrans4.ltrans.o
                0x00007eb4                jswrap_io_getPinMode
 .text.jswrap_io_shiftOutCallback.4147
                0x00007f8c       0xc0 C:\Users\apsyvert\AppData\Local\Temp\cc8fH946.ltrans4.ltrans.o
 .text.jswrap_io_shiftOut
                0x0000804c      0x1b8 C:\Users\apsyvert\AppData\Local\Temp\cc8fH946.ltrans4.ltrans.o
                0x0000804c                jswrap_io_shiftOut
 .text.jswrap_interface_setWatch
                0x00008204      0x35c C:\Users\apsyvert\AppData\Local\Temp\cc8fH946.ltrans4.ltrans.o
                0x00008204                jswrap_interface_setWatch
 .text.jswrap_interface_clearWatch
                0x00008560      0x130 C:\Users\apsyvert\AppData\Local\Temp\cc8fH946.ltrans4.ltrans.o
                0x00008560                jswrap_interface_clearWatch
 .text.jsvGetFirstChild.14954.4129
                0x00008690       0x18 C:\Users\apsyvert\AppData\Local\Temp\cc8fH946.ltrans4.ltrans.o
 .text.jsvGetNextSibling.15004.4126
                0x000086a8       0x18 C:\Users\apsyvert\AppData\Local\Temp\cc8fH946.ltrans4.ltrans.o
 .text.jsvNewFromEmptyString.15028.4124
                0x000086c0       0x18 C:\Users\apsyvert\AppData\Local\Temp\cc8fH946.ltrans4.ltrans.o
 .text.jsvStringIteratorFree.15033
                0x000086d8       0x18 C:\Users\apsyvert\AppData\Local\Temp\cc8fH946.ltrans4.ltrans.o
                0x000086d8                jsvStringIteratorFree.15033
 .text.jsvObjectIteratorNew.15036
                0x000086f0       0x7c C:\Users\apsyvert\AppData\Local\Temp\cc8fH946.ltrans4.ltrans.o
                0x000086f0                jsvObjectIteratorNew.15036
 .text.jsvObjectIteratorGetKey.15043
                0x0000876c       0x28 C:\Users\apsyvert\AppData\Local\Temp\cc8fH946.ltrans4.ltrans.o
                0x0000876c                jsvObjectIteratorGetKey.15043
 .text.jsvObjectIteratorGetValue.15046
                0x00008794       0x28 C:\Users\apsyvert\AppData\Local\Temp\cc8fH946.ltrans4.ltrans.o
                0x00008794                jsvObjectIteratorGetValue.15046
 .text.jsvObjectIteratorHasValue.15022
                0x000087bc       0x24 C:\Users\apsyvert\AppData\Local\Temp\cc8fH946.ltrans4.ltrans.o
                0x000087bc                jsvObjectIteratorHasValue.15022
 .text.jsvObjectIteratorNext.15040
                0x000087e0       0x48 C:\Users\apsyvert\AppData\Local\Temp\cc8fH946.ltrans4.ltrans.o
                0x000087e0                jsvObjectIteratorNext.15040
 .text.jsvObjectIteratorFree.15030
                0x00008828       0x18 C:\Users\apsyvert\AppData\Local\Temp\cc8fH946.ltrans4.ltrans.o
                0x00008828                jsvObjectIteratorFree.15030
 .text.jswrap_json_stringify
                0x00008840       0x28 C:\Users\apsyvert\AppData\Local\Temp\cc8fH946.ltrans4.ltrans.o
                0x00008840                jswrap_json_stringify
 .text.jswrap_json_parse_internal.4061
                0x00008868      0x298 C:\Users\apsyvert\AppData\Local\Temp\cc8fH946.ltrans4.ltrans.o
 .text.jswrap_json_parse
                0x00008b00       0x50 C:\Users\apsyvert\AppData\Local\Temp\cc8fH946.ltrans4.ltrans.o
                0x00008b00                jswrap_json_parse
 .text.jswrap_espruino_FFT
                0x00008b50      0x338 C:\Users\apsyvert\AppData\Local\Temp\cc8fH946.ltrans5.ltrans.o
                0x00008b50                jswrap_espruino_FFT
 .text.jswrap_espruino_interpolate
                0x00008e88      0x144 C:\Users\apsyvert\AppData\Local\Temp\cc8fH946.ltrans5.ltrans.o
                0x00008e88                jswrap_espruino_interpolate
 .text.jswrap_espruino_interpolate2d
                0x00008fcc      0x258 C:\Users\apsyvert\AppData\Local\Temp\cc8fH946.ltrans5.ltrans.o
                0x00008fcc                jswrap_espruino_interpolate2d
 .text.jswrap_espruino_enableWatchdog
                0x00009224       0x50 C:\Users\apsyvert\AppData\Local\Temp\cc8fH946.ltrans5.ltrans.o
                0x00009224                jswrap_espruino_enableWatchdog
 .text.jswrap_espruino_getErrorFlags
                0x00009274       0xcc C:\Users\apsyvert\AppData\Local\Temp\cc8fH946.ltrans5.ltrans.o
                0x00009274                jswrap_espruino_getErrorFlags
 .text.jswrap_espruino_toArrayBuffer
                0x00009340       0x30 C:\Users\apsyvert\AppData\Local\Temp\cc8fH946.ltrans5.ltrans.o
                0x00009340                jswrap_espruino_toArrayBuffer
 .text._jswrap_espruino_toString_char.4245
                0x00009370       0x24 C:\Users\apsyvert\AppData\Local\Temp\cc8fH946.ltrans5.ltrans.o
 .text.jswrap_espruino_toString
                0x00009394       0x58 C:\Users\apsyvert\AppData\Local\Temp\cc8fH946.ltrans5.ltrans.o
                0x00009394                jswrap_espruino_toString
 .text._jswrap_espruino_toUint8Array_char.4230
                0x000093ec       0x24 C:\Users\apsyvert\AppData\Local\Temp\cc8fH946.ltrans5.ltrans.o
 .text.jswrap_espruino_toUint8Array
                0x00009410       0x58 C:\Users\apsyvert\AppData\Local\Temp\cc8fH946.ltrans5.ltrans.o
                0x00009410                jswrap_espruino_toUint8Array
 .text.jswrap_espruino_memoryArea
                0x00009468       0x4c C:\Users\apsyvert\AppData\Local\Temp\cc8fH946.ltrans5.ltrans.o
                0x00009468                jswrap_espruino_memoryArea
 .text.jswrap_espruino_reverseByte
                0x000094b4       0x50 C:\Users\apsyvert\AppData\Local\Temp\cc8fH946.ltrans5.ltrans.o
                0x000094b4                jswrap_espruino_reverseByte
 .text.jswrap_espruino_dumpTimers
                0x00009504        0xc C:\Users\apsyvert\AppData\Local\Temp\cc8fH946.ltrans5.ltrans.o
                0x00009504                jswrap_espruino_dumpTimers
 .text.jswrap_espruino_getSizeOf
                0x00009510      0x10c C:\Users\apsyvert\AppData\Local\Temp\cc8fH946.ltrans5.ltrans.o
                0x00009510                jswrap_espruino_getSizeOf
 .text.jswrap_espruino_mapInPlace
                0x0000961c      0x214 C:\Users\apsyvert\AppData\Local\Temp\cc8fH946.ltrans5.ltrans.o
                0x0000961c                jswrap_espruino_mapInPlace
 .text.jswrap_e_dumpStr
                0x00009830       0x44 C:\Users\apsyvert\AppData\Local\Temp\cc8fH946.ltrans5.ltrans.o
                0x00009830                jswrap_e_dumpStr
 *fill*         0x00009874        0x4 
 .text.jswrap_espruino_HSBtoRGB
                0x00009878      0x248 C:\Users\apsyvert\AppData\Local\Temp\cc8fH946.ltrans5.ltrans.o
                0x00009878                jswrap_espruino_HSBtoRGB
 .text.jswrap_flash_getPage
                0x00009ac0       0x78 C:\Users\apsyvert\AppData\Local\Temp\cc8fH946.ltrans5.ltrans.o
                0x00009ac0                jswrap_flash_getPage
 .text.jswrap_flash_erasePage
                0x00009b38       0x40 C:\Users\apsyvert\AppData\Local\Temp\cc8fH946.ltrans5.ltrans.o
                0x00009b38                jswrap_flash_erasePage
 .text.jswrap_flash_write
                0x00009b78       0xd4 C:\Users\apsyvert\AppData\Local\Temp\cc8fH946.ltrans5.ltrans.o
                0x00009b78                jswrap_flash_write
 .text.jswrap_flash_read
                0x00009c4c       0x88 C:\Users\apsyvert\AppData\Local\Temp\cc8fH946.ltrans5.ltrans.o
                0x00009c4c                jswrap_flash_read
 .text.jsfSaveToFlash_writecb.4174
                0x00009cd4       0x80 C:\Users\apsyvert\AppData\Local\Temp\cc8fH946.ltrans5.ltrans.o
 .text.jsfSaveToFlash_checkcb.4178
                0x00009d54       0x3c C:\Users\apsyvert\AppData\Local\Temp\cc8fH946.ltrans5.ltrans.o
 .text.jsfLoadFromFlash_readcb.4168
                0x00009d90       0x40 C:\Users\apsyvert\AppData\Local\Temp\cc8fH946.ltrans5.ltrans.o
 .text.jsfSaveToFlash
                0x00009dd0      0x204 C:\Users\apsyvert\AppData\Local\Temp\cc8fH946.ltrans5.ltrans.o
                0x00009dd0                jsfSaveToFlash
 .text.jsfLoadFromFlash
                0x00009fd4       0x68 C:\Users\apsyvert\AppData\Local\Temp\cc8fH946.ltrans5.ltrans.o
                0x00009fd4                jsfLoadFromFlash
 .text.jsfFlashContainsCode
                0x0000a03c       0x30 C:\Users\apsyvert\AppData\Local\Temp\cc8fH946.ltrans5.ltrans.o
                0x0000a03c                jsfFlashContainsCode
 .text.isWhitespace.14172.4160
                0x0000a06c       0x4c C:\Users\apsyvert\AppData\Local\Temp\cc8fH946.ltrans5.ltrans.o
 .text.isNumeric.14178.4157
                0x0000a0b8       0x30 C:\Users\apsyvert\AppData\Local\Temp\cc8fH946.ltrans5.ltrans.o
 .text.isAlpha.14181.4154
                0x0000a0e8       0x40 C:\Users\apsyvert\AppData\Local\Temp\cc8fH946.ltrans5.ltrans.o
 .text.jsvGetFirstChild.14184.4151
                0x0000a128       0x18 C:\Users\apsyvert\AppData\Local\Temp\cc8fH946.ltrans5.ltrans.o
 .text.jsvGetNextSibling.14232.4148
                0x0000a140       0x18 C:\Users\apsyvert\AppData\Local\Temp\cc8fH946.ltrans5.ltrans.o
 .text.jsvNewFromEmptyString.14255.4146
                0x0000a158       0x18 C:\Users\apsyvert\AppData\Local\Temp\cc8fH946.ltrans5.ltrans.o
 .text.jsvStringIteratorGetChar.14235.4143
                0x0000a170       0x2c C:\Users\apsyvert\AppData\Local\Temp\cc8fH946.ltrans5.ltrans.o
 .text.jsvStringIteratorHasChar.14246.4140
                0x0000a19c       0x28 C:\Users\apsyvert\AppData\Local\Temp\cc8fH946.ltrans5.ltrans.o
 .text.jsvStringIteratorFree.14260.4129
                0x0000a1c4       0x18 C:\Users\apsyvert\AppData\Local\Temp\cc8fH946.ltrans5.ltrans.o
 .text.jsvObjectIteratorNew.14263.4125
                0x0000a1dc       0x7c C:\Users\apsyvert\AppData\Local\Temp\cc8fH946.ltrans5.ltrans.o
 .text.jsvObjectIteratorGetValue.14270.4122
                0x0000a258       0x28 C:\Users\apsyvert\AppData\Local\Temp\cc8fH946.ltrans5.ltrans.o
 .text.jsvObjectIteratorHasValue.14249.4119
                0x0000a280       0x24 C:\Users\apsyvert\AppData\Local\Temp\cc8fH946.ltrans5.ltrans.o
 .text.jsvObjectIteratorNext.14267.4116
                0x0000a2a4       0x48 C:\Users\apsyvert\AppData\Local\Temp\cc8fH946.ltrans5.ltrans.o
 .text.jsvObjectIteratorFree.14257.4109
                0x0000a2ec       0x18 C:\Users\apsyvert\AppData\Local\Temp\cc8fH946.ltrans5.ltrans.o
 .text.jswrap_arguments
                0x0000a304       0x5c C:\Users\apsyvert\AppData\Local\Temp\cc8fH946.ltrans5.ltrans.o
                0x0000a304                jswrap_arguments
 .text.jswrap_function_constructor
                0x0000a360       0xcc C:\Users\apsyvert\AppData\Local\Temp\cc8fH946.ltrans5.ltrans.o
                0x0000a360                jswrap_function_constructor
 .text.jswrap_eval
                0x0000a42c       0x40 C:\Users\apsyvert\AppData\Local\Temp\cc8fH946.ltrans5.ltrans.o
                0x0000a42c                jswrap_eval
 .text.jswrap_parseInt
                0x0000a46c      0x124 C:\Users\apsyvert\AppData\Local\Temp\cc8fH946.ltrans5.ltrans.o
                0x0000a46c                jswrap_parseInt
 .text.jswrap_parseFloat
                0x0000a590       0xcc C:\Users\apsyvert\AppData\Local\Temp\cc8fH946.ltrans5.ltrans.o
                0x0000a590                jswrap_parseFloat
 .text.jswrap_isNaN
                0x0000a65c       0xf4 C:\Users\apsyvert\AppData\Local\Temp\cc8fH946.ltrans5.ltrans.o
                0x0000a65c                jswrap_isNaN
 .text.jswrap_btoa_encode.14291.4087
                0x0000a750       0x4c C:\Users\apsyvert\AppData\Local\Temp\cc8fH946.ltrans5.ltrans.o
 .text.jswrap_atob_decode.14294.4084
                0x0000a79c       0x68 C:\Users\apsyvert\AppData\Local\Temp\cc8fH946.ltrans5.ltrans.o
 .text.jswrap_btoa
                0x0000a804      0x1ac C:\Users\apsyvert\AppData\Local\Temp\cc8fH946.ltrans5.ltrans.o
                0x0000a804                jswrap_btoa
 .text.jswrap_atob
                0x0000a9b0      0x180 C:\Users\apsyvert\AppData\Local\Temp\cc8fH946.ltrans5.ltrans.o
                0x0000a9b0                jswrap_atob
 .text.jswrap_encodeURIComponent
                0x0000ab30      0x174 C:\Users\apsyvert\AppData\Local\Temp\cc8fH946.ltrans5.ltrans.o
                0x0000ab30                jswrap_encodeURIComponent
 .text.jswrap_decodeURIComponent
                0x0000aca4      0x14c C:\Users\apsyvert\AppData\Local\Temp\cc8fH946.ltrans5.ltrans.o
                0x0000aca4                jswrap_decodeURIComponent
 .text.itostr.14495
                0x0000adf0       0x20 C:\Users\apsyvert\AppData\Local\Temp\cc8fH946.ltrans5.ltrans.o
                0x0000adf0                itostr.14495
 .text.jsvGetFirstChild.14420
                0x0000ae10       0x18 C:\Users\apsyvert\AppData\Local\Temp\cc8fH946.ltrans5.ltrans.o
                0x0000ae10                jsvGetFirstChild.14420
 .text.jsvGetNextSibling.14470
                0x0000ae28       0x18 C:\Users\apsyvert\AppData\Local\Temp\cc8fH946.ltrans5.ltrans.o
                0x0000ae28                jsvGetNextSibling.14470
 .text.jsvNewFromEmptyString.14493
                0x0000ae40       0x18 C:\Users\apsyvert\AppData\Local\Temp\cc8fH946.ltrans5.ltrans.o
                0x0000ae40                jsvNewFromEmptyString.14493
 .text.jswrap_array_reverse
                0x0000ae58      0x130 C:\Users\apsyvert\AppData\Local\Temp\cc8fH946.ltrans6.ltrans.o
                0x0000ae58                jswrap_array_reverse
 .text.jsvSetFirstChild.13253.4296
                0x0000af88       0x1c C:\Users\apsyvert\AppData\Local\Temp\cc8fH946.ltrans6.ltrans.o
 .text.jswrap_arraybuffer_constructor
                0x0000afa4       0x88 C:\Users\apsyvert\AppData\Local\Temp\cc8fH946.ltrans6.ltrans.o
                0x0000afa4                jswrap_arraybuffer_constructor
 .text.jswrap_typedarray_constructor
                0x0000b02c      0x1a0 C:\Users\apsyvert\AppData\Local\Temp\cc8fH946.ltrans6.ltrans.o
                0x0000b02c                jswrap_typedarray_constructor
 .text.jswrap_arraybufferview_set
                0x0000b1cc      0x12c C:\Users\apsyvert\AppData\Local\Temp\cc8fH946.ltrans6.ltrans.o
                0x0000b1cc                jswrap_arraybufferview_set
 .text.jswrap_arraybufferview_map
                0x0000b2f8      0x190 C:\Users\apsyvert\AppData\Local\Temp\cc8fH946.ltrans6.ltrans.o
                0x0000b2f8                jswrap_arraybufferview_map
 .text._jsvGetIntegerAndUnLock.13446.4273
                0x0000b488       0x20 C:\Users\apsyvert\AppData\Local\Temp\cc8fH946.ltrans6.ltrans.o
 .text._jsvGetFloatAndUnLock.13396.4270
                0x0000b4a8       0x28 C:\Users\apsyvert\AppData\Local\Temp\cc8fH946.ltrans6.ltrans.o
 .text.getTimeFromMilliSeconds.4267
                0x0000b4d0      0x124 C:\Users\apsyvert\AppData\Local\Temp\cc8fH946.ltrans6.ltrans.o
 .text.fromTimeInDay.4264
                0x0000b5f4       0x90 C:\Users\apsyvert\AppData\Local\Temp\cc8fH946.ltrans6.ltrans.o
 .text.getCalendarDate.4261
                0x0000b684      0x110 C:\Users\apsyvert\AppData\Local\Temp\cc8fH946.ltrans6.ltrans.o
 .text.fromCalenderDate.4258
                0x0000b794       0xa4 C:\Users\apsyvert\AppData\Local\Temp\cc8fH946.ltrans6.ltrans.o
 .text.getMonth.13476.4255
                0x0000b838       0x78 C:\Users\apsyvert\AppData\Local\Temp\cc8fH946.ltrans6.ltrans.o
 .text.getDay.13479.4252
                0x0000b8b0       0x48 C:\Users\apsyvert\AppData\Local\Temp\cc8fH946.ltrans6.ltrans.o
 .text.jswrap_date_now
                0x0000b8f8       0x5c C:\Users\apsyvert\AppData\Local\Temp\cc8fH946.ltrans6.ltrans.o
                0x0000b8f8                jswrap_date_now
 .text.jswrap_date_from_milliseconds.4247
                0x0000b954       0x44 C:\Users\apsyvert\AppData\Local\Temp\cc8fH946.ltrans6.ltrans.o
 .text.jswrap_date_constructor
                0x0000b998      0x144 C:\Users\apsyvert\AppData\Local\Temp\cc8fH946.ltrans6.ltrans.o
                0x0000b998                jswrap_date_constructor
 .text.jswrap_date_getTimezoneOffset
                0x0000badc       0x20 C:\Users\apsyvert\AppData\Local\Temp\cc8fH946.ltrans6.ltrans.o
                0x0000badc                jswrap_date_getTimezoneOffset
 .text.jswrap_date_getTime
                0x0000bafc       0x2c C:\Users\apsyvert\AppData\Local\Temp\cc8fH946.ltrans6.ltrans.o
                0x0000bafc                jswrap_date_getTime
 .text.getTimeFromDateVar.13493.4235
                0x0000bb28       0x24 C:\Users\apsyvert\AppData\Local\Temp\cc8fH946.ltrans6.ltrans.o
 .text.getCalendarDateFromDateVar.13496.4225
                0x0000bb4c       0x2c C:\Users\apsyvert\AppData\Local\Temp\cc8fH946.ltrans6.ltrans.o
 .text.jswrap_date_getHours
                0x0000bb78       0x20 C:\Users\apsyvert\AppData\Local\Temp\cc8fH946.ltrans6.ltrans.o
                0x0000bb78                jswrap_date_getHours
 .text.jswrap_date_getMinutes
                0x0000bb98       0x20 C:\Users\apsyvert\AppData\Local\Temp\cc8fH946.ltrans6.ltrans.o
                0x0000bb98                jswrap_date_getMinutes
 .text.jswrap_date_getSeconds
                0x0000bbb8       0x20 C:\Users\apsyvert\AppData\Local\Temp\cc8fH946.ltrans6.ltrans.o
                0x0000bbb8                jswrap_date_getSeconds
 .text.jswrap_date_getMilliseconds
                0x0000bbd8       0x20 C:\Users\apsyvert\AppData\Local\Temp\cc8fH946.ltrans6.ltrans.o
                0x0000bbd8                jswrap_date_getMilliseconds
 .text.jswrap_date_getDay
                0x0000bbf8       0x20 C:\Users\apsyvert\AppData\Local\Temp\cc8fH946.ltrans6.ltrans.o
                0x0000bbf8                jswrap_date_getDay
 .text.jswrap_date_getDate
                0x0000bc18       0x20 C:\Users\apsyvert\AppData\Local\Temp\cc8fH946.ltrans6.ltrans.o
                0x0000bc18                jswrap_date_getDate
 .text.jswrap_date_getMonth
                0x0000bc38       0x20 C:\Users\apsyvert\AppData\Local\Temp\cc8fH946.ltrans6.ltrans.o
                0x0000bc38                jswrap_date_getMonth
 .text.jswrap_date_getFullYear
                0x0000bc58       0x20 C:\Users\apsyvert\AppData\Local\Temp\cc8fH946.ltrans6.ltrans.o
                0x0000bc58                jswrap_date_getFullYear
 .text.jswrap_date_toString
                0x0000bc78       0x64 C:\Users\apsyvert\AppData\Local\Temp\cc8fH946.ltrans6.ltrans.o
                0x0000bc78                jswrap_date_toString
 .text.jswrap_date_toUTCString
                0x0000bcdc       0x64 C:\Users\apsyvert\AppData\Local\Temp\cc8fH946.ltrans6.ltrans.o
                0x0000bcdc                jswrap_date_toUTCString
 .text._parse_int.13529.4192
                0x0000bd40       0x28 C:\Users\apsyvert\AppData\Local\Temp\cc8fH946.ltrans6.ltrans.o
 .text._parse_time.13556.4179
                0x0000bd68      0x1bc C:\Users\apsyvert\AppData\Local\Temp\cc8fH946.ltrans6.ltrans.o
 .text.jswrap_date_parse
                0x0000bf24      0x320 C:\Users\apsyvert\AppData\Local\Temp\cc8fH946.ltrans6.ltrans.o
                0x0000bf24                jswrap_date_parse
 .text._jswrap_error_constructor.4171
                0x0000c244       0x5c C:\Users\apsyvert\AppData\Local\Temp\cc8fH946.ltrans6.ltrans.o
 .text.jswrap_error_constructor
                0x0000c2a0       0x20 C:\Users\apsyvert\AppData\Local\Temp\cc8fH946.ltrans6.ltrans.o
                0x0000c2a0                jswrap_error_constructor
 .text.jswrap_syntaxerror_constructor
                0x0000c2c0       0x20 C:\Users\apsyvert\AppData\Local\Temp\cc8fH946.ltrans6.ltrans.o
                0x0000c2c0                jswrap_syntaxerror_constructor
 .text.jswrap_typeerror_constructor
                0x0000c2e0       0x20 C:\Users\apsyvert\AppData\Local\Temp\cc8fH946.ltrans6.ltrans.o
                0x0000c2e0                jswrap_typeerror_constructor
 .text.jswrap_internalerror_constructor
                0x0000c300       0x20 C:\Users\apsyvert\AppData\Local\Temp\cc8fH946.ltrans6.ltrans.o
                0x0000c300                jswrap_internalerror_constructor
 .text.jswrap_referenceerror_constructor
                0x0000c320       0x20 C:\Users\apsyvert\AppData\Local\Temp\cc8fH946.ltrans6.ltrans.o
                0x0000c320                jswrap_referenceerror_constructor
 .text.jswrap_error_toString
                0x0000c340       0x70 C:\Users\apsyvert\AppData\Local\Temp\cc8fH946.ltrans6.ltrans.o
                0x0000c340                jswrap_error_toString
 .text.jsvGetFirstChild.13716.4149
                0x0000c3b0       0x18 C:\Users\apsyvert\AppData\Local\Temp\cc8fH946.ltrans6.ltrans.o
 .text.jsvGetNextSibling.13766.4146
                0x0000c3c8       0x18 C:\Users\apsyvert\AppData\Local\Temp\cc8fH946.ltrans6.ltrans.o
 .text.jsvNewFromEmptyString.13797
                0x0000c3e0       0x18 C:\Users\apsyvert\AppData\Local\Temp\cc8fH946.ltrans6.ltrans.o
                0x0000c3e0                jsvNewFromEmptyString.13797
 .text.jsvStringIteratorHasChar.13769.4141
                0x0000c3f8       0x28 C:\Users\apsyvert\AppData\Local\Temp\cc8fH946.ltrans6.ltrans.o
 .text.jsvStringIteratorSetChar.13781
                0x0000c420       0x2c C:\Users\apsyvert\AppData\Local\Temp\cc8fH946.ltrans6.ltrans.o
                0x0000c420                jsvStringIteratorSetChar.13781
 .text.jsvStringIteratorFree.13791
                0x0000c44c       0x18 C:\Users\apsyvert\AppData\Local\Temp\cc8fH946.ltrans6.ltrans.o
                0x0000c44c                jsvStringIteratorFree.13791
 .text.jsvObjectIteratorNew.13815
                0x0000c464       0x7c C:\Users\apsyvert\AppData\Local\Temp\cc8fH946.ltrans6.ltrans.o
                0x0000c464                jsvObjectIteratorNew.13815
 .text.jsvObjectIteratorGetKey.13822
                0x0000c4e0       0x28 C:\Users\apsyvert\AppData\Local\Temp\cc8fH946.ltrans6.ltrans.o
                0x0000c4e0                jsvObjectIteratorGetKey.13822
 .text.jsvObjectIteratorHasValue.13785
                0x0000c508       0x24 C:\Users\apsyvert\AppData\Local\Temp\cc8fH946.ltrans6.ltrans.o
                0x0000c508                jsvObjectIteratorHasValue.13785
 .text.jsvObjectIteratorNext.13819
                0x0000c52c       0x48 C:\Users\apsyvert\AppData\Local\Temp\cc8fH946.ltrans6.ltrans.o
                0x0000c52c                jsvObjectIteratorNext.13819
 .text.jsvObjectIteratorFree.13794
                0x0000c574       0x18 C:\Users\apsyvert\AppData\Local\Temp\cc8fH946.ltrans6.ltrans.o
                0x0000c574                jsvObjectIteratorFree.13794
 .text.nativeCallGetCType.4086
                0x0000c58c       0xc4 C:\Users\apsyvert\AppData\Local\Temp\cc8fH946.ltrans6.ltrans.o
 .text.jswrap_espruino_nativeCall
                0x0000c650      0x1d0 C:\Users\apsyvert\AppData\Local\Temp\cc8fH946.ltrans6.ltrans.o
                0x0000c650                jswrap_espruino_nativeCall
 .text.jswrap_espruino_clip
                0x0000c820       0x50 C:\Users\apsyvert\AppData\Local\Temp\cc8fH946.ltrans6.ltrans.o
                0x0000c820                jswrap_espruino_clip
 .text.jswrap_espruino_sum
                0x0000c870       0xd0 C:\Users\apsyvert\AppData\Local\Temp\cc8fH946.ltrans6.ltrans.o
                0x0000c870                jswrap_espruino_sum
 .text.jswrap_espruino_variance
                0x0000c940       0xd4 C:\Users\apsyvert\AppData\Local\Temp\cc8fH946.ltrans6.ltrans.o
                0x0000c940                jswrap_espruino_variance
 .text.jswrap_espruino_convolve
                0x0000ca14      0x16c C:\Users\apsyvert\AppData\Local\Temp\cc8fH946.ltrans6.ltrans.o
                0x0000ca14                jswrap_espruino_convolve
 .text.FFT      0x0000cb80      0x424 C:\Users\apsyvert\AppData\Local\Temp\cc8fH946.ltrans6.ltrans.o
                0x0000cb80                FFT
 .text.checkAllTimers.12757
                0x0000cfa4      0x2a8 C:\Users\apsyvert\AppData\Local\Temp\cc8fH946.ltrans7.ltrans.o
                0x0000cfa4                checkAllTimers.12757
 .text.executeTimerCallbacks.12766
                0x0000d24c       0x64 C:\Users\apsyvert\AppData\Local\Temp\cc8fH946.ltrans7.ltrans.o
                0x0000d24c                executeTimerCallbacks.12766
 .text.rescheduleRtc.12768
                0x0000d2b0      0x10c C:\Users\apsyvert\AppData\Local\Temp\cc8fH946.ltrans7.ltrans.o
                0x0000d2b0                rescheduleRtc.12768
 .text.readUnalignedWord.12879.4250
                0x0000d3bc       0x4c C:\Users\apsyvert\AppData\Local\Temp\cc8fH946.ltrans7.ltrans.o
 .text.returnTypeConvert.12885.4244
                0x0000d408       0x48 C:\Users\apsyvert\AppData\Local\Temp\cc8fH946.ltrans7.ltrans.o
 .text.NVMHAL_Init
                0x0000d450        0xc C:\Users\apsyvert\AppData\Local\Temp\cc8fH946.ltrans7.ltrans.o
                0x0000d450                NVMHAL_Init
 .text.NVMHAL_DeInit
                0x0000d45c        0xc C:\Users\apsyvert\AppData\Local\Temp\cc8fH946.ltrans7.ltrans.o
                0x0000d45c                NVMHAL_DeInit
 .text.NVMHAL_Write
                0x0000d468      0x148 C:\Users\apsyvert\AppData\Local\Temp\cc8fH946.ltrans7.ltrans.o
                0x0000d468                NVMHAL_Write
 .text.NVMHAL_PageErase
                0x0000d5b0       0x20 C:\Users\apsyvert\AppData\Local\Temp\cc8fH946.ltrans7.ltrans.o
                0x0000d5b0                NVMHAL_PageErase
 .text.jsvGetFirstChild.12966.4214
                0x0000d5d0       0x18 C:\Users\apsyvert\AppData\Local\Temp\cc8fH946.ltrans7.ltrans.o
 .text.jsvGetNextSibling.13016.4211
                0x0000d5e8       0x18 C:\Users\apsyvert\AppData\Local\Temp\cc8fH946.ltrans7.ltrans.o
 .text._jsvGetIntegerAndUnLock.13029.4208
                0x0000d600       0x20 C:\Users\apsyvert\AppData\Local\Temp\cc8fH946.ltrans7.ltrans.o
 .text.jsvObjectIteratorNew.13035.4204
                0x0000d620       0x7c C:\Users\apsyvert\AppData\Local\Temp\cc8fH946.ltrans7.ltrans.o
 .text.jsvObjectIteratorGetKey.13032.4201
                0x0000d69c       0x28 C:\Users\apsyvert\AppData\Local\Temp\cc8fH946.ltrans7.ltrans.o
 .text.jsvObjectIteratorGetValue.13042.4198
                0x0000d6c4       0x28 C:\Users\apsyvert\AppData\Local\Temp\cc8fH946.ltrans7.ltrans.o
 .text.jsvObjectIteratorHasValue.13019.4195
                0x0000d6ec       0x24 C:\Users\apsyvert\AppData\Local\Temp\cc8fH946.ltrans7.ltrans.o
 .text.jsvObjectIteratorNext.13039.4192
                0x0000d710       0x48 C:\Users\apsyvert\AppData\Local\Temp\cc8fH946.ltrans7.ltrans.o
 .text.jsvObjectIteratorFree.13026.4189
                0x0000d758       0x18 C:\Users\apsyvert\AppData\Local\Temp\cc8fH946.ltrans7.ltrans.o
 .text.jswrap_array_constructor
                0x0000d770       0xcc C:\Users\apsyvert\AppData\Local\Temp\cc8fH946.ltrans7.ltrans.o
                0x0000d770                jswrap_array_constructor
 .text.jswrap_array_indexOf
                0x0000d83c       0x44 C:\Users\apsyvert\AppData\Local\Temp\cc8fH946.ltrans7.ltrans.o
                0x0000d83c                jswrap_array_indexOf
 .text.jswrap_array_join
                0x0000d880       0x68 C:\Users\apsyvert\AppData\Local\Temp\cc8fH946.ltrans7.ltrans.o
                0x0000d880                jswrap_array_join
 .text.jswrap_array_push
                0x0000d8e8       0x90 C:\Users\apsyvert\AppData\Local\Temp\cc8fH946.ltrans7.ltrans.o
                0x0000d8e8                jswrap_array_push
 .text._jswrap_array_iterate_with_callback.4165
                0x0000d978      0x23c C:\Users\apsyvert\AppData\Local\Temp\cc8fH946.ltrans7.ltrans.o
 .text.jswrap_array_map
                0x0000dbb4       0x34 C:\Users\apsyvert\AppData\Local\Temp\cc8fH946.ltrans7.ltrans.o
                0x0000dbb4                jswrap_array_map
 .text.jswrap_array_forEach
                0x0000dbe8       0x30 C:\Users\apsyvert\AppData\Local\Temp\cc8fH946.ltrans7.ltrans.o
                0x0000dbe8                jswrap_array_forEach
 .text.jswrap_array_filter
                0x0000dc18       0x34 C:\Users\apsyvert\AppData\Local\Temp\cc8fH946.ltrans7.ltrans.o
                0x0000dc18                jswrap_array_filter
 .text.jswrap_array_some
                0x0000dc4c       0x34 C:\Users\apsyvert\AppData\Local\Temp\cc8fH946.ltrans7.ltrans.o
                0x0000dc4c                jswrap_array_some
 .text.jswrap_array_every
                0x0000dc80       0x34 C:\Users\apsyvert\AppData\Local\Temp\cc8fH946.ltrans7.ltrans.o
                0x0000dc80                jswrap_array_every
 .text.jswrap_array_reduce
                0x0000dcb4      0x188 C:\Users\apsyvert\AppData\Local\Temp\cc8fH946.ltrans7.ltrans.o
                0x0000dcb4                jswrap_array_reduce
 .text.jswrap_array_splice
                0x0000de3c      0x248 C:\Users\apsyvert\AppData\Local\Temp\cc8fH946.ltrans7.ltrans.o
                0x0000de3c                jswrap_array_splice
 .text.jswrap_array_shift
                0x0000e084       0x58 C:\Users\apsyvert\AppData\Local\Temp\cc8fH946.ltrans7.ltrans.o
                0x0000e084                jswrap_array_shift
 .text.jswrap_array_unshift
                0x0000e0dc       0x38 C:\Users\apsyvert\AppData\Local\Temp\cc8fH946.ltrans7.ltrans.o
                0x0000e0dc                jswrap_array_unshift
 .text.jswrap_array_slice
                0x0000e114      0x130 C:\Users\apsyvert\AppData\Local\Temp\cc8fH946.ltrans7.ltrans.o
                0x0000e114                jswrap_array_slice
 .text._jswrap_array_sort_compare.13117.4112
                0x0000e244       0x74 C:\Users\apsyvert\AppData\Local\Temp\cc8fH946.ltrans7.ltrans.o
 .text._jswrap_array_sort.13122.4107
                0x0000e2b8      0x160 C:\Users\apsyvert\AppData\Local\Temp\cc8fH946.ltrans7.ltrans.o
 .text.jswrap_array_sort
                0x0000e418       0xd4 C:\Users\apsyvert\AppData\Local\Temp\cc8fH946.ltrans7.ltrans.o
                0x0000e418                jswrap_array_sort
 .text.jswrap_array_concat
                0x0000e4ec       0xd0 C:\Users\apsyvert\AppData\Local\Temp\cc8fH946.ltrans7.ltrans.o
                0x0000e4ec                jswrap_array_concat
 .text.jswrap_array_fill
                0x0000e5bc      0x1a8 C:\Users\apsyvert\AppData\Local\Temp\cc8fH946.ltrans7.ltrans.o
                0x0000e5bc                jswrap_array_fill
 .text._jswrap_array_reverse_block
                0x0000e764      0x174 C:\Users\apsyvert\AppData\Local\Temp\cc8fH946.ltrans7.ltrans.o
                0x0000e764                _jswrap_array_reverse_block
 .text.EMU_EnterEM2
                0x0000e8d8       0x9c C:\Users\apsyvert\AppData\Local\Temp\cc8fH946.ltrans8.ltrans.o
                0x0000e8d8                EMU_EnterEM2
 .text.EMU_UpdateOscConfig
                0x0000e974       0x1c C:\Users\apsyvert\AppData\Local\Temp\cc8fH946.ltrans8.ltrans.o
                0x0000e974                EMU_UpdateOscConfig
 .text.INT_Disable.12064.4540
                0x0000e990       0x2c C:\Users\apsyvert\AppData\Local\Temp\cc8fH946.ltrans8.ltrans.o
 .text.INT_Enable.12068.4538
                0x0000e9bc       0x3c C:\Users\apsyvert\AppData\Local\Temp\cc8fH946.ltrans8.ltrans.o
 .text.MSC_Init
                0x0000e9f8       0xbc C:\Users\apsyvert\AppData\Local\Temp\cc8fH946.ltrans8.ltrans.o
                0x0000e9f8                MSC_Init
 .text.MSC_Deinit
                0x0000eab4       0x24 C:\Users\apsyvert\AppData\Local\Temp\cc8fH946.ltrans8.ltrans.o
                0x0000eab4                MSC_Deinit
 .text.BUS_RegBitWrite.12160.4483
                0x0000ead8       0x2c C:\Users\apsyvert\AppData\Local\Temp\cc8fH946.ltrans8.ltrans.o
 .text.RTC_CompareGet.4480
                0x0000eb04       0x3c C:\Users\apsyvert\AppData\Local\Temp\cc8fH946.ltrans8.ltrans.o
 .text.RTC_CompareSet
                0x0000eb40       0x48 C:\Users\apsyvert\AppData\Local\Temp\cc8fH946.ltrans8.ltrans.o
                0x0000eb40                RTC_CompareSet
 .text.RTC_Enable.4473
                0x0000eb88       0x20 C:\Users\apsyvert\AppData\Local\Temp\cc8fH946.ltrans8.ltrans.o
 .text.RTC_Init.4462
                0x0000eba8       0x50 C:\Users\apsyvert\AppData\Local\Temp\cc8fH946.ltrans8.ltrans.o
 .text.RTC_CounterReset.4457
                0x0000ebf8       0x14 C:\Users\apsyvert\AppData\Local\Temp\cc8fH946.ltrans8.ltrans.o
 .text.SYSTEM_ChipRevisionGet
                0x0000ec0c       0x74 C:\Users\apsyvert\AppData\Local\Temp\cc8fH946.ltrans8.ltrans.o
                0x0000ec0c                SYSTEM_ChipRevisionGet
 .text.TIMER_Init
                0x0000ec80      0x108 C:\Users\apsyvert\AppData\Local\Temp\cc8fH946.ltrans8.ltrans.o
                0x0000ec80                TIMER_Init
 .text.TIMER_InitCC
                0x0000ed88       0xc8 C:\Users\apsyvert\AppData\Local\Temp\cc8fH946.ltrans8.ltrans.o
                0x0000ed88                TIMER_InitCC
 .text.USART_BaudrateAsyncSet.4310
                0x0000ee50       0xb0 C:\Users\apsyvert\AppData\Local\Temp\cc8fH946.ltrans8.ltrans.o
 .text.USART_Enable
                0x0000ef00       0x6c C:\Users\apsyvert\AppData\Local\Temp\cc8fH946.ltrans8.ltrans.o
                0x0000ef00                USART_Enable
 .text.USART_InitAsync
                0x0000ef6c       0xb0 C:\Users\apsyvert\AppData\Local\Temp\cc8fH946.ltrans8.ltrans.o
                0x0000ef6c                USART_InitAsync
 .text.USART_Reset.4200
                0x0000f01c       0xac C:\Users\apsyvert\AppData\Local\Temp\cc8fH946.ltrans8.ltrans.o
 .text.USART_Rx
                0x0000f0c8       0x28 C:\Users\apsyvert\AppData\Local\Temp\cc8fH946.ltrans8.ltrans.o
                0x0000f0c8                USART_Rx
 .text.USART_Tx
                0x0000f0f0       0x28 C:\Users\apsyvert\AppData\Local\Temp\cc8fH946.ltrans8.ltrans.o
                0x0000f0f0                USART_Tx
 .text.NVIC_EnableIRQ.12579.4136
                0x0000f118       0x30 C:\Users\apsyvert\AppData\Local\Temp\cc8fH946.ltrans8.ltrans.o
 .text.NVIC_ClearPendingIRQ.12585.4133
                0x0000f148       0x34 C:\Users\apsyvert\AppData\Local\Temp\cc8fH946.ltrans8.ltrans.o
 .text.GPIO_IntClear.12588.4130
                0x0000f17c       0x20 C:\Users\apsyvert\AppData\Local\Temp\cc8fH946.ltrans8.ltrans.o
 .text.GPIO_IntGetEnabled.12592.4128
                0x0000f19c       0x28 C:\Users\apsyvert\AppData\Local\Temp\cc8fH946.ltrans8.ltrans.o
 .text.INT_Disable.12594.4126
                0x0000f1c4       0x2c C:\Users\apsyvert\AppData\Local\Temp\cc8fH946.ltrans8.ltrans.o
 .text.INT_Enable.12596.4124
                0x0000f1f0       0x3c C:\Users\apsyvert\AppData\Local\Temp\cc8fH946.ltrans8.ltrans.o
 .text.EFM32_CTZ.12598.4121
                0x0000f22c       0x30 C:\Users\apsyvert\AppData\Local\Temp\cc8fH946.ltrans8.ltrans.o
 .text.GPIOINT_Init
                0x0000f25c       0x20 C:\Users\apsyvert\AppData\Local\Temp\cc8fH946.ltrans8.ltrans.o
                0x0000f25c                GPIOINT_Init
 .text.GPIOINT_CallbackRegister
                0x0000f27c       0x28 C:\Users\apsyvert\AppData\Local\Temp\cc8fH946.ltrans8.ltrans.o
                0x0000f27c                GPIOINT_CallbackRegister
 .text.GPIOINT_IRQDispatcher.12609.4109
                0x0000f2a4       0x4c C:\Users\apsyvert\AppData\Local\Temp\cc8fH946.ltrans8.ltrans.o
 .text.GPIO_EVEN_IRQHandler
                0x0000f2f0       0x28 C:\Users\apsyvert\AppData\Local\Temp\cc8fH946.ltrans8.ltrans.o
                0x0000f2f0                GPIO_EVEN_IRQHandler
 .text.GPIO_ODD_IRQHandler
                0x0000f318       0x28 C:\Users\apsyvert\AppData\Local\Temp\cc8fH946.ltrans8.ltrans.o
                0x0000f318                GPIO_ODD_IRQHandler
 .text.NVIC_EnableIRQ.12681.4101
                0x0000f340       0x30 C:\Users\apsyvert\AppData\Local\Temp\cc8fH946.ltrans8.ltrans.o
 .text.NVIC_ClearPendingIRQ.12690.4093
                0x0000f370       0x34 C:\Users\apsyvert\AppData\Local\Temp\cc8fH946.ltrans8.ltrans.o
 .text.INT_Disable.12693.4091
                0x0000f3a4       0x2c C:\Users\apsyvert\AppData\Local\Temp\cc8fH946.ltrans8.ltrans.o
 .text.INT_Enable.12696.4089
                0x0000f3d0       0x3c C:\Users\apsyvert\AppData\Local\Temp\cc8fH946.ltrans8.ltrans.o
 .text.RTC_CounterGet.12698
                0x0000f40c       0x18 C:\Users\apsyvert\AppData\Local\Temp\cc8fH946.ltrans8.ltrans.o
                0x0000f40c                RTC_CounterGet.12698
 .text.RTC_IntClear.12700
                0x0000f424       0x1c C:\Users\apsyvert\AppData\Local\Temp\cc8fH946.ltrans8.ltrans.o
                0x0000f424                RTC_IntClear.12700
 .text.RTC_IntDisable.12703.4081
                0x0000f440       0x24 C:\Users\apsyvert\AppData\Local\Temp\cc8fH946.ltrans8.ltrans.o
 .text.RTC_IntEnable.12706
                0x0000f464       0x24 C:\Users\apsyvert\AppData\Local\Temp\cc8fH946.ltrans8.ltrans.o
                0x0000f464                RTC_IntEnable.12706
 .text.RTC_IntGet.12709.4076
                0x0000f488       0x18 C:\Users\apsyvert\AppData\Local\Temp\cc8fH946.ltrans8.ltrans.o
 .text.RTCDRV_AllocateTimer
                0x0000f4a0       0x88 C:\Users\apsyvert\AppData\Local\Temp\cc8fH946.ltrans8.ltrans.o
                0x0000f4a0                RTCDRV_AllocateTimer
 .text.RTCDRV_Init
                0x0000f528       0xb8 C:\Users\apsyvert\AppData\Local\Temp\cc8fH946.ltrans8.ltrans.o
                0x0000f528                RTCDRV_Init
 .text.RTCDRV_StartTimer
                0x0000f5e0      0x314 C:\Users\apsyvert\AppData\Local\Temp\cc8fH946.ltrans8.ltrans.o
                0x0000f5e0                RTCDRV_StartTimer
 .text.RTCDRV_GetWallClock
                0x0000f8f4       0x40 C:\Users\apsyvert\AppData\Local\Temp\cc8fH946.ltrans8.ltrans.o
                0x0000f8f4                RTCDRV_GetWallClock
 .text.RTCDRV_GetWallClockTicks32.4036
                0x0000f934       0x30 C:\Users\apsyvert\AppData\Local\Temp\cc8fH946.ltrans8.ltrans.o
 .text.RTCDRV_SetWallClock
                0x0000f964       0x4c C:\Users\apsyvert\AppData\Local\Temp\cc8fH946.ltrans8.ltrans.o
                0x0000f964                RTCDRV_SetWallClock
 .text.RTC_IRQHandler
                0x0000f9b0       0xc4 C:\Users\apsyvert\AppData\Local\Temp\cc8fH946.ltrans8.ltrans.o
                0x0000f9b0                RTC_IRQHandler
 .text.jshPinWatch
                0x0000fa74       0xe0 C:\Users\apsyvert\AppData\Local\Temp\cc8fH946.ltrans9.ltrans.o
                0x0000fa74                jshPinWatch
 .text.jshGetWatchedPinState
                0x0000fb54       0x6c C:\Users\apsyvert\AppData\Local\Temp\cc8fH946.ltrans9.ltrans.o
                0x0000fb54                jshGetWatchedPinState
 .text.jshIsEventForPin
                0x0000fbc0       0x30 C:\Users\apsyvert\AppData\Local\Temp\cc8fH946.ltrans9.ltrans.o
                0x0000fbc0                jshIsEventForPin
 .text.jshGetCurrentPinFunction
                0x0000fbf0       0x18 C:\Users\apsyvert\AppData\Local\Temp\cc8fH946.ltrans9.ltrans.o
                0x0000fbf0                jshGetCurrentPinFunction
 .text.jshSetOutputValue
                0x0000fc08       0x18 C:\Users\apsyvert\AppData\Local\Temp\cc8fH946.ltrans9.ltrans.o
                0x0000fc08                jshSetOutputValue
 .text.jshEnableWatchDog
                0x0000fc20       0x14 C:\Users\apsyvert\AppData\Local\Temp\cc8fH946.ltrans9.ltrans.o
                0x0000fc20                jshEnableWatchDog
 .text.jshIsDeviceInitialised
                0x0000fc34       0x18 C:\Users\apsyvert\AppData\Local\Temp\cc8fH946.ltrans9.ltrans.o
                0x0000fc34                jshIsDeviceInitialised
 .text.jshUSARTSetup
                0x0000fc4c      0x1d4 C:\Users\apsyvert\AppData\Local\Temp\cc8fH946.ltrans9.ltrans.o
                0x0000fc4c                jshUSARTSetup
 .text.jshUSARTKick
                0x0000fe20       0xa0 C:\Users\apsyvert\AppData\Local\Temp\cc8fH946.ltrans9.ltrans.o
                0x0000fe20                jshUSARTKick
 .text.jshSPISetup
                0x0000fec0       0x18 C:\Users\apsyvert\AppData\Local\Temp\cc8fH946.ltrans9.ltrans.o
                0x0000fec0                jshSPISetup
 .text.jshSPISend
                0x0000fed8       0x1c C:\Users\apsyvert\AppData\Local\Temp\cc8fH946.ltrans9.ltrans.o
                0x0000fed8                jshSPISend
 .text.jshSPISend16
                0x0000fef4       0x18 C:\Users\apsyvert\AppData\Local\Temp\cc8fH946.ltrans9.ltrans.o
                0x0000fef4                jshSPISend16
 .text.jshSPISet16
                0x0000ff0c       0x18 C:\Users\apsyvert\AppData\Local\Temp\cc8fH946.ltrans9.ltrans.o
                0x0000ff0c                jshSPISet16
 .text.jshSPISetReceive
                0x0000ff24       0x18 C:\Users\apsyvert\AppData\Local\Temp\cc8fH946.ltrans9.ltrans.o
                0x0000ff24                jshSPISetReceive
 .text.jshSPIWait
                0x0000ff3c       0x14 C:\Users\apsyvert\AppData\Local\Temp\cc8fH946.ltrans9.ltrans.o
                0x0000ff3c                jshSPIWait
 .text.jshI2CSetup
                0x0000ff50       0x18 C:\Users\apsyvert\AppData\Local\Temp\cc8fH946.ltrans9.ltrans.o
                0x0000ff50                jshI2CSetup
 .text.jshI2CWrite
                0x0000ff68       0x1c C:\Users\apsyvert\AppData\Local\Temp\cc8fH946.ltrans9.ltrans.o
                0x0000ff68                jshI2CWrite
 .text.jshI2CRead
                0x0000ff84       0x1c C:\Users\apsyvert\AppData\Local\Temp\cc8fH946.ltrans9.ltrans.o
                0x0000ff84                jshI2CRead
 .text.jshFlashGetPage
                0x0000ffa0       0x48 C:\Users\apsyvert\AppData\Local\Temp\cc8fH946.ltrans9.ltrans.o
                0x0000ffa0                jshFlashGetPage
 .text.jshFlashErasePage
                0x0000ffe8       0x40 C:\Users\apsyvert\AppData\Local\Temp\cc8fH946.ltrans9.ltrans.o
                0x0000ffe8                jshFlashErasePage
 .text.jshFlashRead
                0x00010028       0x20 C:\Users\apsyvert\AppData\Local\Temp\cc8fH946.ltrans9.ltrans.o
                0x00010028                jshFlashRead
 .text.jshFlashWrite
                0x00010048       0x40 C:\Users\apsyvert\AppData\Local\Temp\cc8fH946.ltrans9.ltrans.o
                0x00010048                jshFlashWrite
 .text.jshSleep
                0x00010088      0x168 C:\Users\apsyvert\AppData\Local\Temp\cc8fH946.ltrans9.ltrans.o
                0x00010088                jshSleep
 .text.jshUtilTimerReschedule
                0x000101f0       0x90 C:\Users\apsyvert\AppData\Local\Temp\cc8fH946.ltrans9.ltrans.o
                0x000101f0                jshUtilTimerReschedule
 .text.jshUtilTimerStart
                0x00010280       0x2c C:\Users\apsyvert\AppData\Local\Temp\cc8fH946.ltrans9.ltrans.o
                0x00010280                jshUtilTimerStart
 .text.jshUtilTimerDisable
                0x000102ac       0x14 C:\Users\apsyvert\AppData\Local\Temp\cc8fH946.ltrans9.ltrans.o
                0x000102ac                jshUtilTimerDisable
 .text.jshReadTemperature
                0x000102c0       0x18 C:\Users\apsyvert\AppData\Local\Temp\cc8fH946.ltrans9.ltrans.o
                0x000102c0                jshReadTemperature
 .text.jshReadVRef
                0x000102d8       0x18 C:\Users\apsyvert\AppData\Local\Temp\cc8fH946.ltrans9.ltrans.o
                0x000102d8                jshReadVRef
 .text.jshGetRandomNumber
                0x000102f0       0x14 C:\Users\apsyvert\AppData\Local\Temp\cc8fH946.ltrans9.ltrans.o
                0x000102f0                jshGetRandomNumber
 .text.Reset_Handler
                0x00010304       0x3c C:\Users\apsyvert\AppData\Local\Temp\cc8fH946.ltrans9.ltrans.o
                0x00010304                Reset_Handler
 .text.Default_Handler
                0x00010340        0x8 C:\Users\apsyvert\AppData\Local\Temp\cc8fH946.ltrans9.ltrans.o
                0x00010340                TIMER2_IRQHandler
                0x00010340                DebugMon_Handler
                0x00010340                USART0_TX_IRQHandler
                0x00010340                I2C0_IRQHandler
                0x00010340                HardFault_Handler
                0x00010340                LEUART1_IRQHandler
                0x00010340                PendSV_Handler
                0x00010340                NMI_Handler
                0x00010340                I2C1_IRQHandler
                0x00010340                TIMER3_IRQHandler
                0x00010340                MSC_IRQHandler
                0x00010340                ADC0_IRQHandler
                0x00010340                UsageFault_Handler
                0x00010340                LEUART0_IRQHandler
                0x00010340                UART1_TX_IRQHandler
                0x00010340                LCD_IRQHandler
                0x00010340                PCNT2_IRQHandler
                0x00010340                LETIMER0_IRQHandler
                0x00010340                TIMER1_IRQHandler
                0x00010340                USART2_RX_IRQHandler
                0x00010340                Default_Handler
                0x00010340                EMU_IRQHandler
                0x00010340                PCNT0_IRQHandler
                0x00010340                USB_IRQHandler
                0x00010340                BURTC_IRQHandler
                0x00010340                PCNT1_IRQHandler
                0x00010340                ACMP0_IRQHandler
                0x00010340                USART0_RX_IRQHandler
                0x00010340                MemManage_Handler
                0x00010340                SVC_Handler
                0x00010340                DAC0_IRQHandler
                0x00010340                UART1_RX_IRQHandler
                0x00010340                CMU_IRQHandler
                0x00010340                EBI_IRQHandler
                0x00010340                LESENSE_IRQHandler
                0x00010340                AES_IRQHandler
                0x00010340                VCMP_IRQHandler
                0x00010340                DMA_IRQHandler
                0x00010340                BusFault_Handler
                0x00010340                USART2_TX_IRQHandler
 .text.GetProdRev.11250.4233
                0x00010348       0x1c C:\Users\apsyvert\AppData\Local\Temp\cc8fH946.ltrans9.ltrans.o
 .text.SystemCoreClockGet
                0x00010364       0x48 C:\Users\apsyvert\AppData\Local\Temp\cc8fH946.ltrans9.ltrans.o
                0x00010364                SystemCoreClockGet
 .text.SystemMaxCoreClockGet.4229
                0x000103ac       0x14 C:\Users\apsyvert\AppData\Local\Temp\cc8fH946.ltrans9.ltrans.o
 .text.SystemHFClockGet.4227
                0x000103c0       0xec C:\Users\apsyvert\AppData\Local\Temp\cc8fH946.ltrans9.ltrans.o
 .text.SystemHFXOClockGet.4225
                0x000104ac       0x18 C:\Users\apsyvert\AppData\Local\Temp\cc8fH946.ltrans9.ltrans.o
 .text.SystemInit.4220
                0x000104c4        0xc C:\Users\apsyvert\AppData\Local\Temp\cc8fH946.ltrans9.ltrans.o
 .text.SystemLFRCOClockGet.4218
                0x000104d0       0x14 C:\Users\apsyvert\AppData\Local\Temp\cc8fH946.ltrans9.ltrans.o
 .text.SystemULFRCOClockGet.4216
                0x000104e4       0x14 C:\Users\apsyvert\AppData\Local\Temp\cc8fH946.ltrans9.ltrans.o
 .text.SystemLFXOClockGet.4214
                0x000104f8       0x18 C:\Users\apsyvert\AppData\Local\Temp\cc8fH946.ltrans9.ltrans.o
 .text.BUS_RegBitWrite.11354.4205
                0x00010510       0x2c C:\Users\apsyvert\AppData\Local\Temp\cc8fH946.ltrans9.ltrans.o
 .text.BUS_RegMaskedWrite.11361.4200
                0x0001053c       0x28 C:\Users\apsyvert\AppData\Local\Temp\cc8fH946.ltrans9.ltrans.o
 .text.GPIO_PinOutClear.11370.4193
                0x00010564       0x58 C:\Users\apsyvert\AppData\Local\Temp\cc8fH946.ltrans9.ltrans.o
 .text.GPIO_PinOutSet.11376.4189
                0x000105bc       0x58 C:\Users\apsyvert\AppData\Local\Temp\cc8fH946.ltrans9.ltrans.o
 .text.GPIO_IntConfig.4173
                0x00010614       0xd0 C:\Users\apsyvert\AppData\Local\Temp\cc8fH946.ltrans9.ltrans.o
 .text.GPIO_PinModeSet
                0x000106e4       0xf4 C:\Users\apsyvert\AppData\Local\Temp\cc8fH946.ltrans9.ltrans.o
                0x000106e4                GPIO_PinModeSet
 .text.BUS_RegBitWrite.11439.4153
                0x000107d8       0x2c C:\Users\apsyvert\AppData\Local\Temp\cc8fH946.ltrans9.ltrans.o
 .text.BUS_RegBitRead.11446.4149
                0x00010804       0x2c C:\Users\apsyvert\AppData\Local\Temp\cc8fH946.ltrans9.ltrans.o
 .text.CMU_DivToLog2.11450.4146
                0x00010830       0x38 C:\Users\apsyvert\AppData\Local\Temp\cc8fH946.ltrans9.ltrans.o
 .text.SYSTEM_GetFamily.11457.4139
                0x00010868       0x20 C:\Users\apsyvert\AppData\Local\Temp\cc8fH946.ltrans9.ltrans.o
 .text.auxClkGet.11464.4137
                0x00010888       0x8c C:\Users\apsyvert\AppData\Local\Temp\cc8fH946.ltrans9.ltrans.o
 .text.dbgClkGet.11503.4135
                0x00010914       0x54 C:\Users\apsyvert\AppData\Local\Temp\cc8fH946.ltrans9.ltrans.o
 .text.flashWaitStateControl.11466.4132
                0x00010968       0xb4 C:\Users\apsyvert\AppData\Local\Temp\cc8fH946.ltrans9.ltrans.o
 .text.flashWaitStateMax.11469.4130
                0x00010a1c       0x14 C:\Users\apsyvert\AppData\Local\Temp\cc8fH946.ltrans9.ltrans.o
 .text.lfClkGet.11505.4127
                0x00010a30       0xfc C:\Users\apsyvert\AppData\Local\Temp\cc8fH946.ltrans9.ltrans.o
 .text.maxFreqHfle.11471.4125
                0x00010b2c       0x74 C:\Users\apsyvert\AppData\Local\Temp\cc8fH946.ltrans9.ltrans.o
 .text.syncReg.11461.4122
                0x00010ba0       0x30 C:\Users\apsyvert\AppData\Local\Temp\cc8fH946.ltrans9.ltrans.o
 .text.CMU_ClockDivSet
                0x00010bd0      0x23c C:\Users\apsyvert\AppData\Local\Temp\cc8fH946.ltrans9.ltrans.o
                0x00010bd0                CMU_ClockDivSet
 .text.CMU_ClockEnable
                0x00010e0c       0xe8 C:\Users\apsyvert\AppData\Local\Temp\cc8fH946.ltrans9.ltrans.o
                0x00010e0c                CMU_ClockEnable
 .text.CMU_ClockFreqGet
                0x00010ef4      0x1f0 C:\Users\apsyvert\AppData\Local\Temp\cc8fH946.ltrans9.ltrans.o
                0x00010ef4                CMU_ClockFreqGet
 .text.CMU_ClockSelectGet.4086
                0x000110e4      0x124 C:\Users\apsyvert\AppData\Local\Temp\cc8fH946.ltrans9.ltrans.o
 .text.CMU_ClockSelectSet
                0x00011208      0x21c C:\Users\apsyvert\AppData\Local\Temp\cc8fH946.ltrans9.ltrans.o
                0x00011208                CMU_ClockSelectSet
 .text.CMU_OscillatorEnable
                0x00011424       0xbc C:\Users\apsyvert\AppData\Local\Temp\cc8fH946.ltrans9.ltrans.o
                0x00011424                CMU_OscillatorEnable
 .text.SystemCoreClockUpdate.11876
                0x000114e0        0xc C:\Users\apsyvert\AppData\Local\Temp\cc8fH946.ltrans9.ltrans.o
                0x000114e0                SystemCoreClockUpdate.11876
 .text.CMU_Lock.11870
                0x000114ec       0x18 C:\Users\apsyvert\AppData\Local\Temp\cc8fH946.ltrans9.ltrans.o
                0x000114ec                CMU_Lock.11870
 .text.CMU_Unlock.11872
                0x00011504       0x1c C:\Users\apsyvert\AppData\Local\Temp\cc8fH946.ltrans9.ltrans.o
                0x00011504                CMU_Unlock.11872
 .text.emuRestore.11878
                0x00011520       0xe8 C:\Users\apsyvert\AppData\Local\Temp\cc8fH946.ltrans9.ltrans.o
                0x00011520                emuRestore.11878
 .text.getErrataFixEmuE107En.11874
                0x00011608       0x68 C:\Users\apsyvert\AppData\Local\Temp\cc8fH946.ltrans9.ltrans.o
                0x00011608                getErrataFixEmuE107En.11874
 .text.sin      0x00011670      0x300 C:\Users\apsyvert\AppData\Local\Temp\cc8fH946.ltrans10.ltrans.o
                0x00011670                sin
 .text.sqrt     0x00011970      0x190 C:\Users\apsyvert\AppData\Local\Temp\cc8fH946.ltrans10.ltrans.o
                0x00011970                sqrt
 .text.main     0x00011b00       0x58 C:\Users\apsyvert\AppData\Local\Temp\cc8fH946.ltrans10.ltrans.o
                0x00011b00                main
 .text.NVIC_EnableIRQ.10337
                0x00011b58       0x30 C:\Users\apsyvert\AppData\Local\Temp\cc8fH946.ltrans10.ltrans.o
                0x00011b58                NVIC_EnableIRQ.10337
 .text.NVIC_ClearPendingIRQ.10343
                0x00011b88       0x34 C:\Users\apsyvert\AppData\Local\Temp\cc8fH946.ltrans10.ltrans.o
                0x00011b88                NVIC_ClearPendingIRQ.10343
 .text.NVIC_SetPriority.10346.4253
                0x00011bbc       0x54 C:\Users\apsyvert\AppData\Local\Temp\cc8fH946.ltrans10.ltrans.o
 .text.SysTick_Config.10351.4250
                0x00011c10       0x44 C:\Users\apsyvert\AppData\Local\Temp\cc8fH946.ltrans10.ltrans.o
 .text.CHIP_Init.10488.4248
                0x00011c54       0x40 C:\Users\apsyvert\AppData\Local\Temp\cc8fH946.ltrans10.ltrans.o
 .text.BUS_RegBitRead.10354.4244
                0x00011c94       0x2c C:\Users\apsyvert\AppData\Local\Temp\cc8fH946.ltrans10.ltrans.o
 .text.BUS_RegMaskedRead.10358.4240
                0x00011cc0       0x20 C:\Users\apsyvert\AppData\Local\Temp\cc8fH946.ltrans10.ltrans.o
 .text.EMU_EnterEM1.10362
                0x00011ce0       0x20 C:\Users\apsyvert\AppData\Local\Temp\cc8fH946.ltrans10.ltrans.o
                0x00011ce0                EMU_EnterEM1.10362
 .text.INT_Disable.10364.4236
                0x00011d00       0x2c C:\Users\apsyvert\AppData\Local\Temp\cc8fH946.ltrans10.ltrans.o
 .text.INT_Enable.10366.4234
                0x00011d2c       0x3c C:\Users\apsyvert\AppData\Local\Temp\cc8fH946.ltrans10.ltrans.o
 .text.TIMER_CompareSet.10368
                0x00011d68       0x24 C:\Users\apsyvert\AppData\Local\Temp\cc8fH946.ltrans10.ltrans.o
                0x00011d68                TIMER_CompareSet.10368
 .text.TIMER_CounterGet.10402
                0x00011d8c       0x18 C:\Users\apsyvert\AppData\Local\Temp\cc8fH946.ltrans10.ltrans.o
                0x00011d8c                TIMER_CounterGet.10402
 .text.TIMER_IntClear.10405
                0x00011da4       0x1c C:\Users\apsyvert\AppData\Local\Temp\cc8fH946.ltrans10.ltrans.o
                0x00011da4                TIMER_IntClear.10405
 .text.TIMER_IntDisable.10409
                0x00011dc0       0x24 C:\Users\apsyvert\AppData\Local\Temp\cc8fH946.ltrans10.ltrans.o
                0x00011dc0                TIMER_IntDisable.10409
 .text.TIMER_IntEnable.10413
                0x00011de4       0x20 C:\Users\apsyvert\AppData\Local\Temp\cc8fH946.ltrans10.ltrans.o
                0x00011de4                TIMER_IntEnable.10413
 .text.TIMER_IntGet.10417.4211
                0x00011e04       0x18 C:\Users\apsyvert\AppData\Local\Temp\cc8fH946.ltrans10.ltrans.o
 .text.TIMER_TopSet.10420.4178
                0x00011e1c       0x1c C:\Users\apsyvert\AppData\Local\Temp\cc8fH946.ltrans10.ltrans.o
 .text.USART_IntClear.10424
                0x00011e38       0x1c C:\Users\apsyvert\AppData\Local\Temp\cc8fH946.ltrans10.ltrans.o
                0x00011e38                USART_IntClear.10424
 .text.USART_IntDisable.10454.4170
                0x00011e54       0x24 C:\Users\apsyvert\AppData\Local\Temp\cc8fH946.ltrans10.ltrans.o
 .text.USART_IntEnable.10458
                0x00011e78       0x20 C:\Users\apsyvert\AppData\Local\Temp\cc8fH946.ltrans10.ltrans.o
                0x00011e78                USART_IntEnable.10458
 .text.GPIO_PinInGet.10462
                0x00011e98       0x54 C:\Users\apsyvert\AppData\Local\Temp\cc8fH946.ltrans10.ltrans.o
                0x00011e98                GPIO_PinInGet.10462
 .text.GPIO_PinOutClear.10468.4131
                0x00011eec       0x58 C:\Users\apsyvert\AppData\Local\Temp\cc8fH946.ltrans10.ltrans.o
 .text.GPIO_PinOutGet.10472.4127
                0x00011f44       0x54 C:\Users\apsyvert\AppData\Local\Temp\cc8fH946.ltrans10.ltrans.o
 .text.GPIO_PinOutSet.10476.4123
                0x00011f98       0x58 C:\Users\apsyvert\AppData\Local\Temp\cc8fH946.ltrans10.ltrans.o
 .text.jshGetTimeForSecond.10490
                0x00011ff0       0x18 C:\Users\apsyvert\AppData\Local\Temp\cc8fH946.ltrans10.ltrans.o
                0x00011ff0                jshGetTimeForSecond.10490
 .text.SysTick_Handler
                0x00012008        0xc C:\Users\apsyvert\AppData\Local\Temp\cc8fH946.ltrans10.ltrans.o
                0x00012008                SysTick_Handler
 .text.TIMER0_IRQHandler
                0x00012014       0xdc C:\Users\apsyvert\AppData\Local\Temp\cc8fH946.ltrans10.ltrans.o
                0x00012014                TIMER0_IRQHandler
 .text.efm32PortFromPin
                0x000120f0       0x24 C:\Users\apsyvert\AppData\Local\Temp\cc8fH946.ltrans10.ltrans.o
                0x000120f0                efm32PortFromPin
 .text.efm32EventFromPin.10480
                0x00012114       0x2c C:\Users\apsyvert\AppData\Local\Temp\cc8fH946.ltrans10.ltrans.o
                0x00012114                efm32EventFromPin.10480
 .text.efm32FireEvent
                0x00012140       0x1c C:\Users\apsyvert\AppData\Local\Temp\cc8fH946.ltrans10.ltrans.o
                0x00012140                efm32FireEvent
 .text.USART1_RX_IRQHandler
                0x0001215c       0x38 C:\Users\apsyvert\AppData\Local\Temp\cc8fH946.ltrans10.ltrans.o
                0x0001215c                USART1_RX_IRQHandler
 .text.USART1_TX_IRQHandler
                0x00012194       0x4c C:\Users\apsyvert\AppData\Local\Temp\cc8fH946.ltrans10.ltrans.o
                0x00012194                USART1_TX_IRQHandler
 .text.UART0_RX_IRQHandler
                0x000121e0       0x38 C:\Users\apsyvert\AppData\Local\Temp\cc8fH946.ltrans10.ltrans.o
                0x000121e0                UART0_RX_IRQHandler
 .text.UART0_TX_IRQHandler
                0x00012218       0x4c C:\Users\apsyvert\AppData\Local\Temp\cc8fH946.ltrans10.ltrans.o
                0x00012218                UART0_TX_IRQHandler
 .text.jshInit.4094
                0x00012264      0x16c C:\Users\apsyvert\AppData\Local\Temp\cc8fH946.ltrans10.ltrans.o
 .text.jshReset
                0x000123d0        0xc C:\Users\apsyvert\AppData\Local\Temp\cc8fH946.ltrans10.ltrans.o
                0x000123d0                jshReset
 .text.jshIdle  0x000123dc        0xc C:\Users\apsyvert\AppData\Local\Temp\cc8fH946.ltrans10.ltrans.o
                0x000123dc                jshIdle
 .text.jshGetSerialNumber
                0x000123e8       0x90 C:\Users\apsyvert\AppData\Local\Temp\cc8fH946.ltrans10.ltrans.o
                0x000123e8                jshGetSerialNumber
 .text.jshGetRTCSystemTime.4080
                0x00012478       0x28 C:\Users\apsyvert\AppData\Local\Temp\cc8fH946.ltrans10.ltrans.o
 .text.jshGetSystemTime
                0x000124a0       0xd8 C:\Users\apsyvert\AppData\Local\Temp\cc8fH946.ltrans10.ltrans.o
                0x000124a0                jshGetSystemTime
 .text.jshSetSystemTime
                0x00012578       0x3c C:\Users\apsyvert\AppData\Local\Temp\cc8fH946.ltrans10.ltrans.o
                0x00012578                jshSetSystemTime
 .text.jshGetTimeFromMilliseconds
                0x000125b4       0x5c C:\Users\apsyvert\AppData\Local\Temp\cc8fH946.ltrans10.ltrans.o
                0x000125b4                jshGetTimeFromMilliseconds
 .text.jshGetMillisecondsFromTime
                0x00012610       0x5c C:\Users\apsyvert\AppData\Local\Temp\cc8fH946.ltrans10.ltrans.o
                0x00012610                jshGetMillisecondsFromTime
 .text.jshDoSysTick.4064
                0x0001266c      0x1e0 C:\Users\apsyvert\AppData\Local\Temp\cc8fH946.ltrans10.ltrans.o
 .text.jshInterruptOff
                0x0001284c        0xc C:\Users\apsyvert\AppData\Local\Temp\cc8fH946.ltrans10.ltrans.o
                0x0001284c                jshInterruptOff
 .text.jshInterruptOn
                0x00012858        0xc C:\Users\apsyvert\AppData\Local\Temp\cc8fH946.ltrans10.ltrans.o
                0x00012858                jshInterruptOn
 .text.jshDelayMicroseconds
                0x00012864       0xbc C:\Users\apsyvert\AppData\Local\Temp\cc8fH946.ltrans10.ltrans.o
                0x00012864                jshDelayMicroseconds
 .text.jshPinSetValue
                0x00012920       0x5c C:\Users\apsyvert\AppData\Local\Temp\cc8fH946.ltrans10.ltrans.o
                0x00012920                jshPinSetValue
 .text.jshPinGetValue
                0x0001297c       0x40 C:\Users\apsyvert\AppData\Local\Temp\cc8fH946.ltrans10.ltrans.o
                0x0001297c                jshPinGetValue
 .text.jshPinSetState
                0x000129bc       0xd0 C:\Users\apsyvert\AppData\Local\Temp\cc8fH946.ltrans10.ltrans.o
                0x000129bc                jshPinSetState
 .text.jshPinGetState
                0x00012a8c      0x104 C:\Users\apsyvert\AppData\Local\Temp\cc8fH946.ltrans10.ltrans.o
                0x00012a8c                jshPinGetState
 .text.jshPinAnalog
                0x00012b90       0x20 C:\Users\apsyvert\AppData\Local\Temp\cc8fH946.ltrans10.ltrans.o
                0x00012b90                jshPinAnalog
 .text.jshPinAnalogFast
                0x00012bb0       0x18 C:\Users\apsyvert\AppData\Local\Temp\cc8fH946.ltrans10.ltrans.o
                0x00012bb0                jshPinAnalogFast
 .text.jshPinAnalogOutput
                0x00012bc8       0x20 C:\Users\apsyvert\AppData\Local\Temp\cc8fH946.ltrans10.ltrans.o
                0x00012bc8                jshPinAnalogOutput
 .text.jshPinPulse
                0x00012be8       0xb8 C:\Users\apsyvert\AppData\Local\Temp\cc8fH946.ltrans10.ltrans.o
                0x00012be8                jshPinPulse
 .text.jshCanWatch
                0x00012ca0       0x70 C:\Users\apsyvert\AppData\Local\Temp\cc8fH946.ltrans10.ltrans.o
                0x00012ca0                jshCanWatch
 .text.ceil     0x00012d10       0xb4 C:\Users\apsyvert\AppData\Local\Temp\cc8fH946.ltrans11.ltrans.o
                0x00012d10                ceil
 .text.floor    0x00012dc4      0x148 C:\Users\apsyvert\AppData\Local\Temp\cc8fH946.ltrans11.ltrans.o
                0x00012dc4                floor
 .text.frexp    0x00012f0c       0xd8 C:\Users\apsyvert\AppData\Local\Temp\cc8fH946.ltrans11.ltrans.o
                0x00012f0c                frexp
 .text.ldexp    0x00012fe4      0x18c C:\Users\apsyvert\AppData\Local\Temp\cc8fH946.ltrans11.ltrans.o
                0x00012fe4                ldexp
 .text.signbit  0x00013170       0x24 C:\Users\apsyvert\AppData\Local\Temp\cc8fH946.ltrans11.ltrans.o
                0x00013170                signbit
 .text.isfinite
                0x00013194       0x34 C:\Users\apsyvert\AppData\Local\Temp\cc8fH946.ltrans11.ltrans.o
                0x00013194                isfinite
 .text.log      0x000131c8      0x418 C:\Users\apsyvert\AppData\Local\Temp\cc8fH946.ltrans11.ltrans.o
                0x000131c8                log
 .text.mtherr   0x000135e0       0x18 C:\Users\apsyvert\AppData\Local\Temp\cc8fH946.ltrans11.ltrans.o
                0x000135e0                mtherr
 .text.polevl   0x000135f8       0x6c C:\Users\apsyvert\AppData\Local\Temp\cc8fH946.ltrans11.ltrans.o
                0x000135f8                polevl
 .text.p1evl    0x00013664       0x80 C:\Users\apsyvert\AppData\Local\Temp\cc8fH946.ltrans11.ltrans.o
                0x00013664                p1evl
 *fill*         0x000136e4        0x4 
 .text.acos     0x000136e8      0x118 C:\Users\apsyvert\AppData\Local\Temp\cc8fH946.ltrans12.ltrans.o
                0x000136e8                acos
 .text.atan     0x00013800      0x278 C:\Users\apsyvert\AppData\Local\Temp\cc8fH946.ltrans12.ltrans.o
                0x00013800                atan
 .text.atan2    0x00013a78      0x504 C:\Users\apsyvert\AppData\Local\Temp\cc8fH946.ltrans12.ltrans.o
                0x00013a78                atan2
 *fill*         0x00013f7c        0x4 
 .text.exp      0x00013f80      0x1c8 C:\Users\apsyvert\AppData\Local\Temp\cc8fH946.ltrans12.ltrans.o
                0x00013f80                exp
 .text.jswGetSymbolListForObject
                0x00014148      0x2d4 C:\Users\apsyvert\AppData\Local\Temp\cc8fH946.ltrans13.ltrans.o
                0x00014148                jswGetSymbolListForObject
 .text.jswGetSymbolListForObjectProto
                0x0001441c      0x324 C:\Users\apsyvert\AppData\Local\Temp\cc8fH946.ltrans13.ltrans.o
                0x0001441c                jswGetSymbolListForObjectProto
 .text.jswIsBuiltInObject
                0x00014740      0x2c8 C:\Users\apsyvert\AppData\Local\Temp\cc8fH946.ltrans13.ltrans.o
                0x00014740                jswIsBuiltInObject
 .text.jswGetBuiltInLibrary
                0x00014a08       0x2c C:\Users\apsyvert\AppData\Local\Temp\cc8fH946.ltrans13.ltrans.o
                0x00014a08                jswGetBuiltInLibrary
 .text.jswGetBasicObjectName
                0x00014a34      0x1a4 C:\Users\apsyvert\AppData\Local\Temp\cc8fH946.ltrans13.ltrans.o
                0x00014a34                jswGetBasicObjectName
 .text.jswGetBasicObjectPrototypeName
                0x00014bd8       0xf4 C:\Users\apsyvert\AppData\Local\Temp\cc8fH946.ltrans13.ltrans.o
                0x00014bd8                jswGetBasicObjectPrototypeName
 .text.jswIdle  0x00014ccc       0x30 C:\Users\apsyvert\AppData\Local\Temp\cc8fH946.ltrans13.ltrans.o
                0x00014ccc                jswIdle
 .text.jswInit  0x00014cfc        0xc C:\Users\apsyvert\AppData\Local\Temp\cc8fH946.ltrans13.ltrans.o
                0x00014cfc                jswInit
 .text.jswKill  0x00014d08       0x10 C:\Users\apsyvert\AppData\Local\Temp\cc8fH946.ltrans13.ltrans.o
                0x00014d08                jswKill
 .text.heatshrink_encoder_reset.4221
                0x00014d18       0x58 C:\Users\apsyvert\AppData\Local\Temp\cc8fH946.ltrans13.ltrans.o
 .text.heatshrink_encoder_sink.4213
                0x00014d70       0xb8 C:\Users\apsyvert\AppData\Local\Temp\cc8fH946.ltrans13.ltrans.o
 .text.heatshrink_encoder_poll.4205
                0x00014e28      0x144 C:\Users\apsyvert\AppData\Local\Temp\cc8fH946.ltrans13.ltrans.o
 .text.heatshrink_encoder_finish.4200
                0x00014f6c       0x4c C:\Users\apsyvert\AppData\Local\Temp\cc8fH946.ltrans13.ltrans.o
 .text.st_step_search.9301.4197
                0x00014fb8       0xe4 C:\Users\apsyvert\AppData\Local\Temp\cc8fH946.ltrans13.ltrans.o
 .text.st_yield_tag_bit.9315.4193
                0x0001509c       0x58 C:\Users\apsyvert\AppData\Local\Temp\cc8fH946.ltrans13.ltrans.o
 .text.st_yield_literal.9335.4189
                0x000150f4       0x2c C:\Users\apsyvert\AppData\Local\Temp\cc8fH946.ltrans13.ltrans.o
 .text.st_yield_br_index.9323.4185
                0x00015120       0x48 C:\Users\apsyvert\AppData\Local\Temp\cc8fH946.ltrans13.ltrans.o
 .text.st_yield_br_length.9327.4181
                0x00015168       0x4c C:\Users\apsyvert\AppData\Local\Temp\cc8fH946.ltrans13.ltrans.o
 .text.st_save_backlog.9342.4178
                0x000151b4       0x18 C:\Users\apsyvert\AppData\Local\Temp\cc8fH946.ltrans13.ltrans.o
 .text.st_flush_bit_buffer.9288.4172
                0x000151cc       0x48 C:\Users\apsyvert\AppData\Local\Temp\cc8fH946.ltrans13.ltrans.o
 .text.add_tag_bit.9310.4167
                0x00015214       0x24 C:\Users\apsyvert\AppData\Local\Temp\cc8fH946.ltrans13.ltrans.o
 .text.get_input_offset.9259.4164
                0x00015238       0x18 C:\Users\apsyvert\AppData\Local\Temp\cc8fH946.ltrans13.ltrans.o
 .text.get_input_buffer_size.9256.4161
                0x00015250       0x18 C:\Users\apsyvert\AppData\Local\Temp\cc8fH946.ltrans13.ltrans.o
 .text.get_lookahead_size.9262.4158
                0x00015268       0x18 C:\Users\apsyvert\AppData\Local\Temp\cc8fH946.ltrans13.ltrans.o
 .text.do_indexing.9265.4155
                0x00015280       0x14 C:\Users\apsyvert\AppData\Local\Temp\cc8fH946.ltrans13.ltrans.o
 .text.is_finishing.9268.4152
                0x00015294       0x1c C:\Users\apsyvert\AppData\Local\Temp\cc8fH946.ltrans13.ltrans.o
 .text.can_take_byte.9280.4149
                0x000152b0       0x28 C:\Users\apsyvert\AppData\Local\Temp\cc8fH946.ltrans13.ltrans.o
 .text.find_longest_match.9294.4142
                0x000152d8       0xe0 C:\Users\apsyvert\AppData\Local\Temp\cc8fH946.ltrans13.ltrans.o
 .text.push_outgoing_bits.9319.4138
                0x000153b8       0x6c C:\Users\apsyvert\AppData\Local\Temp\cc8fH946.ltrans13.ltrans.o
 .text.push_bits.9304.4132
                0x00015424       0xb8 C:\Users\apsyvert\AppData\Local\Temp\cc8fH946.ltrans13.ltrans.o
 .text.push_literal_byte.9331.4128
                0x000154dc       0x40 C:\Users\apsyvert\AppData\Local\Temp\cc8fH946.ltrans13.ltrans.o
 .text.save_backlog.9339.4112
                0x0001551c       0x70 C:\Users\apsyvert\AppData\Local\Temp\cc8fH946.ltrans13.ltrans.o
 .text.heatshrink_decoder_reset.4109
                0x0001558c       0x60 C:\Users\apsyvert\AppData\Local\Temp\cc8fH946.ltrans13.ltrans.o
 .text.heatshrink_decoder_sink.4101
                0x000155ec       0x84 C:\Users\apsyvert\AppData\Local\Temp\cc8fH946.ltrans13.ltrans.o
 .text.heatshrink_decoder_poll.4093
                0x00015670      0x108 C:\Users\apsyvert\AppData\Local\Temp\cc8fH946.ltrans13.ltrans.o
 .text.st_tag_bit.9416.4090
                0x00015778       0x3c C:\Users\apsyvert\AppData\Local\Temp\cc8fH946.ltrans13.ltrans.o
 .text.st_yield_literal.9448.4086
                0x000157b4       0x74 C:\Users\apsyvert\AppData\Local\Temp\cc8fH946.ltrans13.ltrans.o
 .text.st_backref_index_msb.9421.4083
                0x00015828       0x40 C:\Users\apsyvert\AppData\Local\Temp\cc8fH946.ltrans13.ltrans.o
 .text.st_backref_index_lsb.9424.4080
                0x00015868       0x68 C:\Users\apsyvert\AppData\Local\Temp\cc8fH946.ltrans13.ltrans.o
 .text.st_backref_count_msb.9427.4077
                0x000158d0       0x40 C:\Users\apsyvert\AppData\Local\Temp\cc8fH946.ltrans13.ltrans.o
 .text.st_backref_count_lsb.9430.4074
                0x00015910       0x54 C:\Users\apsyvert\AppData\Local\Temp\cc8fH946.ltrans13.ltrans.o
 .text.st_yield_backref.9452.4068
                0x00015964       0xc0 C:\Users\apsyvert\AppData\Local\Temp\cc8fH946.ltrans13.ltrans.o
 .text.get_bits.9412.4064
                0x00015a24       0xd8 C:\Users\apsyvert\AppData\Local\Temp\cc8fH946.ltrans13.ltrans.o
 .text.heatshrink_decoder_finish.4059
                0x00015afc       0x80 C:\Users\apsyvert\AppData\Local\Temp\cc8fH946.ltrans13.ltrans.o
 .text.push_byte.9438.4034
                0x00015b7c       0x2c C:\Users\apsyvert\AppData\Local\Temp\cc8fH946.ltrans13.ltrans.o
 .text.heatshrink_encode
                0x00015ba8      0x17c C:\Users\apsyvert\AppData\Local\Temp\cc8fH946.ltrans13.ltrans.o
                0x00015ba8                heatshrink_encode
 .text.heatshrink_decode
                0x00015d24      0x1dc C:\Users\apsyvert\AppData\Local\Temp\cc8fH946.ltrans13.ltrans.o
                0x00015d24                heatshrink_decode
 .text.asin     0x00015f00      0x250 C:\Users\apsyvert\AppData\Local\Temp\cc8fH946.ltrans13.ltrans.o
                0x00015f00                asin
 .text.jstGetLastPinTimerTask
                0x00016150       0x28 C:\Users\apsyvert\AppData\Local\Temp\cc8fH946.ltrans14.ltrans.o
                0x00016150                jstGetLastPinTimerTask
 .text.jstGetLastBufferTimerTask
                0x00016178       0x30 C:\Users\apsyvert\AppData\Local\Temp\cc8fH946.ltrans14.ltrans.o
                0x00016178                jstGetLastBufferTimerTask
 .text.jstPinOutputAtTime
                0x000161a8       0xd0 C:\Users\apsyvert\AppData\Local\Temp\cc8fH946.ltrans14.ltrans.o
                0x000161a8                jstPinOutputAtTime
 .text.jstSetWakeUp
                0x00016278       0xac C:\Users\apsyvert\AppData\Local\Temp\cc8fH946.ltrans14.ltrans.o
                0x00016278                jstSetWakeUp
 .text.jstClearWakeUp
                0x00016324       0x88 C:\Users\apsyvert\AppData\Local\Temp\cc8fH946.ltrans14.ltrans.o
                0x00016324                jstClearWakeUp
 .text.jstStartSignal
                0x000163ac      0x14c C:\Users\apsyvert\AppData\Local\Temp\cc8fH946.ltrans14.ltrans.o
                0x000163ac                jstStartSignal
 .text.jstStopBufferTimerTask
                0x000164f8       0x2c C:\Users\apsyvert\AppData\Local\Temp\cc8fH946.ltrans14.ltrans.o
                0x000164f8                jstStopBufferTimerTask
 .text.jstReset
                0x00016524       0x20 C:\Users\apsyvert\AppData\Local\Temp\cc8fH946.ltrans14.ltrans.o
                0x00016524                jstReset
 .text.jstDumpUtilityTimers
                0x00016544      0x290 C:\Users\apsyvert\AppData\Local\Temp\cc8fH946.ltrans14.ltrans.o
                0x00016544                jstDumpUtilityTimers
 .text.jshSPIInitInfo.8322.4425
                0x000167d4       0x54 C:\Users\apsyvert\AppData\Local\Temp\cc8fH946.ltrans14.ltrans.o
 .text.jsspiHardwareFunc.4406
                0x00016828       0x24 C:\Users\apsyvert\AppData\Local\Temp\cc8fH946.ltrans14.ltrans.o
 .text.jsspiFastSoftwareFunc.4410
                0x0001684c       0x70 C:\Users\apsyvert\AppData\Local\Temp\cc8fH946.ltrans14.ltrans.o
 .text.jsspiSoftwareFunc.4414
                0x000168bc      0x1b4 C:\Users\apsyvert\AppData\Local\Temp\cc8fH946.ltrans14.ltrans.o
 .text.jsspiPopulateSPIInfo
                0x00016a70      0x138 C:\Users\apsyvert\AppData\Local\Temp\cc8fH946.ltrans14.ltrans.o
                0x00016a70                jsspiPopulateSPIInfo
 .text.jsspiGetSendFunction
                0x00016ba8       0xf4 C:\Users\apsyvert\AppData\Local\Temp\cc8fH946.ltrans14.ltrans.o
                0x00016ba8                jsspiGetSendFunction
 .text.jsspiSend4bit
                0x00016c9c       0xc8 C:\Users\apsyvert\AppData\Local\Temp\cc8fH946.ltrans14.ltrans.o
                0x00016c9c                jsspiSend4bit
 .text.jsspiSend8bit
                0x00016d64       0xf4 C:\Users\apsyvert\AppData\Local\Temp\cc8fH946.ltrans14.ltrans.o
                0x00016d64                jsspiSend8bit
 .text.jsvGetFirstChild.8465.4360
                0x00016e58       0x18 C:\Users\apsyvert\AppData\Local\Temp\cc8fH946.ltrans14.ltrans.o
 .text.gen_jswrap_Array_pop.8561
                0x00016e70       0x18 C:\Users\apsyvert\AppData\Local\Temp\cc8fH946.ltrans14.ltrans.o
                0x00016e70                gen_jswrap_Array_pop.8561
 .text.gen_jswrap_Array_isArray.8564
                0x00016e88       0x18 C:\Users\apsyvert\AppData\Local\Temp\cc8fH946.ltrans14.ltrans.o
                0x00016e88                gen_jswrap_Array_isArray.8564
 .text.gen_jswrap_Uint8Array_Uint8Array.8568
                0x00016ea0       0x24 C:\Users\apsyvert\AppData\Local\Temp\cc8fH946.ltrans14.ltrans.o
                0x00016ea0                gen_jswrap_Uint8Array_Uint8Array.8568
 .text.gen_jswrap_Uint8ClampedArray_Uint8ClampedArray.8573
                0x00016ec4       0x24 C:\Users\apsyvert\AppData\Local\Temp\cc8fH946.ltrans14.ltrans.o
                0x00016ec4                gen_jswrap_Uint8ClampedArray_Uint8ClampedArray.8573
 .text.gen_jswrap_Int8Array_Int8Array.8578
                0x00016ee8       0x24 C:\Users\apsyvert\AppData\Local\Temp\cc8fH946.ltrans14.ltrans.o
                0x00016ee8                gen_jswrap_Int8Array_Int8Array.8578
 .text.gen_jswrap_Uint16Array_Uint16Array.8583
                0x00016f0c       0x24 C:\Users\apsyvert\AppData\Local\Temp\cc8fH946.ltrans14.ltrans.o
                0x00016f0c                gen_jswrap_Uint16Array_Uint16Array.8583
 .text.gen_jswrap_Int16Array_Int16Array.8588
                0x00016f30       0x24 C:\Users\apsyvert\AppData\Local\Temp\cc8fH946.ltrans14.ltrans.o
                0x00016f30                gen_jswrap_Int16Array_Int16Array.8588
 .text.gen_jswrap_Uint32Array_Uint32Array.8593
                0x00016f54       0x24 C:\Users\apsyvert\AppData\Local\Temp\cc8fH946.ltrans14.ltrans.o
                0x00016f54                gen_jswrap_Uint32Array_Uint32Array.8593
 .text.gen_jswrap_Int32Array_Int32Array.8598
                0x00016f78       0x24 C:\Users\apsyvert\AppData\Local\Temp\cc8fH946.ltrans14.ltrans.o
                0x00016f78                gen_jswrap_Int32Array_Int32Array.8598
 .text.gen_jswrap_Float32Array_Float32Array.8603
                0x00016f9c       0x24 C:\Users\apsyvert\AppData\Local\Temp\cc8fH946.ltrans14.ltrans.o
                0x00016f9c                gen_jswrap_Float32Array_Float32Array.8603
 .text.gen_jswrap_Float64Array_Float64Array.8608
                0x00016fc0       0x24 C:\Users\apsyvert\AppData\Local\Temp\cc8fH946.ltrans14.ltrans.o
                0x00016fc0                gen_jswrap_Float64Array_Float64Array.8608
 .text.gen_jswrap_ArrayBufferView_buffer.8613
                0x00016fe4       0x20 C:\Users\apsyvert\AppData\Local\Temp\cc8fH946.ltrans14.ltrans.o
                0x00016fe4                gen_jswrap_ArrayBufferView_buffer.8613
 .text.gen_jswrap_ArrayBufferView_byteLength.8515
                0x00017004       0x24 C:\Users\apsyvert\AppData\Local\Temp\cc8fH946.ltrans14.ltrans.o
                0x00017004                gen_jswrap_ArrayBufferView_byteLength.8515
 .text.gen_jswrap_ArrayBufferView_byteOffset.8518
                0x00017028       0x18 C:\Users\apsyvert\AppData\Local\Temp\cc8fH946.ltrans14.ltrans.o
                0x00017028                gen_jswrap_ArrayBufferView_byteOffset.8518
 .text.gen_jswrap_E_getTemperature.8616
                0x00017040       0x14 C:\Users\apsyvert\AppData\Local\Temp\cc8fH946.ltrans14.ltrans.o
                0x00017040                gen_jswrap_E_getTemperature.8616
 .text.gen_jswrap_E_getAnalogVRef.8618
                0x00017054       0x14 C:\Users\apsyvert\AppData\Local\Temp\cc8fH946.ltrans14.ltrans.o
                0x00017054                gen_jswrap_E_getAnalogVRef.8618
 .text.gen_jswrap_global.8620
                0x00017068       0x18 C:\Users\apsyvert\AppData\Local\Temp\cc8fH946.ltrans14.ltrans.o
                0x00017068                gen_jswrap_global.8620
 .text.gen_jswrap_dump.8622
                0x00017080       0x14 C:\Users\apsyvert\AppData\Local\Temp\cc8fH946.ltrans14.ltrans.o
                0x00017080                gen_jswrap_dump.8622
 .text.gen_jswrap_load.8521
                0x00017094       0x20 C:\Users\apsyvert\AppData\Local\Temp\cc8fH946.ltrans14.ltrans.o
                0x00017094                gen_jswrap_load.8521
 .text.gen_jswrap_save.8523
                0x000170b4       0x20 C:\Users\apsyvert\AppData\Local\Temp\cc8fH946.ltrans14.ltrans.o
                0x000170b4                gen_jswrap_save.8523
 .text.gen_jswrap_reset.8525
                0x000170d4       0x20 C:\Users\apsyvert\AppData\Local\Temp\cc8fH946.ltrans14.ltrans.o
                0x000170d4                gen_jswrap_reset.8525
 .text.gen_jswrap_getTime.8625
                0x000170f4       0x48 C:\Users\apsyvert\AppData\Local\Temp\cc8fH946.ltrans14.ltrans.o
                0x000170f4                gen_jswrap_getTime.8625
 .text.gen_jswrap_peek8.8627
                0x0001713c       0x20 C:\Users\apsyvert\AppData\Local\Temp\cc8fH946.ltrans14.ltrans.o
                0x0001713c                gen_jswrap_peek8.8627
 .text.gen_jswrap_poke8.8639
                0x0001715c       0x1c C:\Users\apsyvert\AppData\Local\Temp\cc8fH946.ltrans14.ltrans.o
                0x0001715c                gen_jswrap_poke8.8639
 .text.gen_jswrap_peek16.8631
                0x00017178       0x20 C:\Users\apsyvert\AppData\Local\Temp\cc8fH946.ltrans14.ltrans.o
                0x00017178                gen_jswrap_peek16.8631
 .text.gen_jswrap_poke16.8643
                0x00017198       0x1c C:\Users\apsyvert\AppData\Local\Temp\cc8fH946.ltrans14.ltrans.o
                0x00017198                gen_jswrap_poke16.8643
 .text.gen_jswrap_peek32.8635
                0x000171b4       0x20 C:\Users\apsyvert\AppData\Local\Temp\cc8fH946.ltrans14.ltrans.o
                0x000171b4                gen_jswrap_peek32.8635
 .text.gen_jswrap_poke32.8647
                0x000171d4       0x1c C:\Users\apsyvert\AppData\Local\Temp\cc8fH946.ltrans14.ltrans.o
                0x000171d4                gen_jswrap_poke32.8647
 .text.gen_jswrap_NaN.8527
                0x000171f0       0x24 C:\Users\apsyvert\AppData\Local\Temp\cc8fH946.ltrans14.ltrans.o
                0x000171f0                gen_jswrap_NaN.8527
 .text.gen_jswrap_Infinity.8529
                0x00017214       0x24 C:\Users\apsyvert\AppData\Local\Temp\cc8fH946.ltrans14.ltrans.o
                0x00017214                gen_jswrap_Infinity.8529
 .text.gen_jswrap_Number_NaN.8531
                0x00017238       0x24 C:\Users\apsyvert\AppData\Local\Temp\cc8fH946.ltrans14.ltrans.o
                0x00017238                gen_jswrap_Number_NaN.8531
 .text.gen_jswrap_Number_MAX_VALUE.8533
                0x0001725c       0x1c C:\Users\apsyvert\AppData\Local\Temp\cc8fH946.ltrans14.ltrans.o
                0x0001725c                gen_jswrap_Number_MAX_VALUE.8533
 .text.gen_jswrap_Number_MIN_VALUE.8535
                0x00017278       0x18 C:\Users\apsyvert\AppData\Local\Temp\cc8fH946.ltrans14.ltrans.o
                0x00017278                gen_jswrap_Number_MIN_VALUE.8535
 .text.gen_jswrap_Number_NEGATIVE_INFINITY.8537
                0x00017290       0x30 C:\Users\apsyvert\AppData\Local\Temp\cc8fH946.ltrans14.ltrans.o
                0x00017290                gen_jswrap_Number_NEGATIVE_INFINITY.8537
 .text.gen_jswrap_Number_POSITIVE_INFINITY.8539
                0x000172c0       0x24 C:\Users\apsyvert\AppData\Local\Temp\cc8fH946.ltrans14.ltrans.o
                0x000172c0                gen_jswrap_Number_POSITIVE_INFINITY.8539
 .text.gen_jswrap_HIGH.8541
                0x000172e4       0x10 C:\Users\apsyvert\AppData\Local\Temp\cc8fH946.ltrans14.ltrans.o
                0x000172e4                gen_jswrap_HIGH.8541
 .text.gen_jswrap_LOW.8543
                0x000172f4       0x10 C:\Users\apsyvert\AppData\Local\Temp\cc8fH946.ltrans14.ltrans.o
                0x000172f4                gen_jswrap_LOW.8543
 .text.gen_jswrap_Object_keys.8651
                0x00017304       0x1c C:\Users\apsyvert\AppData\Local\Temp\cc8fH946.ltrans14.ltrans.o
                0x00017304                gen_jswrap_Object_keys.8651
 .text.gen_jswrap_Object_getOwnPropertyNames.8654
                0x00017320       0x1c C:\Users\apsyvert\AppData\Local\Temp\cc8fH946.ltrans14.ltrans.o
                0x00017320                gen_jswrap_Object_getOwnPropertyNames.8654
 .text.gen_jswrap_process_version.8657
                0x0001733c       0x14 C:\Users\apsyvert\AppData\Local\Temp\cc8fH946.ltrans14.ltrans.o
                0x0001733c                gen_jswrap_process_version.8657
 .text.gen_jswrap_Serial_find.8659
                0x00017350       0x24 C:\Users\apsyvert\AppData\Local\Temp\cc8fH946.ltrans14.ltrans.o
                0x00017350                gen_jswrap_Serial_find.8659
 .text.gen_jswrap_USB.8669
                0x00017374       0x1c C:\Users\apsyvert\AppData\Local\Temp\cc8fH946.ltrans14.ltrans.o
                0x00017374                gen_jswrap_USB.8669
 .text.gen_jswrap_Serial1.8671
                0x00017390       0x1c C:\Users\apsyvert\AppData\Local\Temp\cc8fH946.ltrans14.ltrans.o
                0x00017390                gen_jswrap_Serial1.8671
 .text.gen_jswrap_Serial2.8673
                0x000173ac       0x1c C:\Users\apsyvert\AppData\Local\Temp\cc8fH946.ltrans14.ltrans.o
                0x000173ac                gen_jswrap_Serial2.8673
 .text.gen_jswrap_Serial3.8675
                0x000173c8       0x1c C:\Users\apsyvert\AppData\Local\Temp\cc8fH946.ltrans14.ltrans.o
                0x000173c8                gen_jswrap_Serial3.8675
 .text.gen_jswrap_LoopbackA.8677
                0x000173e4       0x1c C:\Users\apsyvert\AppData\Local\Temp\cc8fH946.ltrans14.ltrans.o
                0x000173e4                gen_jswrap_LoopbackA.8677
 .text.gen_jswrap_LoopbackB.8679
                0x00017400       0x1c C:\Users\apsyvert\AppData\Local\Temp\cc8fH946.ltrans14.ltrans.o
                0x00017400                gen_jswrap_LoopbackB.8679
 .text.gen_jswrap_Serial_setConsole.8691
                0x0001741c       0x1c C:\Users\apsyvert\AppData\Local\Temp\cc8fH946.ltrans14.ltrans.o
                0x0001741c                gen_jswrap_Serial_setConsole.8691
 .text.gen_jswrap_SPI1.8681
                0x00017438       0x1c C:\Users\apsyvert\AppData\Local\Temp\cc8fH946.ltrans14.ltrans.o
                0x00017438                gen_jswrap_SPI1.8681
 .text.gen_jswrap_SPI2.8683
                0x00017454       0x1c C:\Users\apsyvert\AppData\Local\Temp\cc8fH946.ltrans14.ltrans.o
                0x00017454                gen_jswrap_SPI2.8683
 .text.gen_jswrap_SPI3.8685
                0x00017470       0x1c C:\Users\apsyvert\AppData\Local\Temp\cc8fH946.ltrans14.ltrans.o
                0x00017470                gen_jswrap_SPI3.8685
 .text.gen_jswrap_SPI_find.8663
                0x0001748c       0x24 C:\Users\apsyvert\AppData\Local\Temp\cc8fH946.ltrans14.ltrans.o
                0x0001748c                gen_jswrap_SPI_find.8663
 .text.gen_jswrap_I2C_find.8666
                0x000174b0       0x24 C:\Users\apsyvert\AppData\Local\Temp\cc8fH946.ltrans14.ltrans.o
                0x000174b0                gen_jswrap_I2C_find.8666
 .text.gen_jswrap_I2C1.8687
                0x000174d4       0x1c C:\Users\apsyvert\AppData\Local\Temp\cc8fH946.ltrans14.ltrans.o
                0x000174d4                gen_jswrap_I2C1.8687
 .text.gen_jswrap_I2C2.8689
                0x000174f0       0x1c C:\Users\apsyvert\AppData\Local\Temp\cc8fH946.ltrans14.ltrans.o
                0x000174f0                gen_jswrap_I2C2.8689
 .text.gen_jswrap_String_indexOf.8694
                0x0001750c       0x24 C:\Users\apsyvert\AppData\Local\Temp\cc8fH946.ltrans14.ltrans.o
                0x0001750c                gen_jswrap_String_indexOf.8694
 .text.gen_jswrap_String_lastIndexOf.8699
                0x00017530       0x24 C:\Users\apsyvert\AppData\Local\Temp\cc8fH946.ltrans14.ltrans.o
                0x00017530                gen_jswrap_String_lastIndexOf.8699
 .text.gen_jswrap_String_toLowerCase.8704
                0x00017554       0x1c C:\Users\apsyvert\AppData\Local\Temp\cc8fH946.ltrans14.ltrans.o
                0x00017554                gen_jswrap_String_toLowerCase.8704
 .text.gen_jswrap_String_toUpperCase.8707
                0x00017570       0x1c C:\Users\apsyvert\AppData\Local\Temp\cc8fH946.ltrans14.ltrans.o
                0x00017570                gen_jswrap_String_toUpperCase.8707
 *fill*         0x0001758c        0x4 
 .text.gen_jswrap_Math_E.8545
                0x00017590       0x20 C:\Users\apsyvert\AppData\Local\Temp\cc8fH946.ltrans14.ltrans.o
                0x00017590                gen_jswrap_Math_E.8545
 .text.gen_jswrap_Math_PI.8547
                0x000175b0       0x20 C:\Users\apsyvert\AppData\Local\Temp\cc8fH946.ltrans14.ltrans.o
                0x000175b0                gen_jswrap_Math_PI.8547
 .text.gen_jswrap_Math_LN2.8549
                0x000175d0       0x20 C:\Users\apsyvert\AppData\Local\Temp\cc8fH946.ltrans14.ltrans.o
                0x000175d0                gen_jswrap_Math_LN2.8549
 .text.gen_jswrap_Math_LN10.8551
                0x000175f0       0x20 C:\Users\apsyvert\AppData\Local\Temp\cc8fH946.ltrans14.ltrans.o
                0x000175f0                gen_jswrap_Math_LN10.8551
 .text.gen_jswrap_Math_LOG2E.8553
                0x00017610       0x20 C:\Users\apsyvert\AppData\Local\Temp\cc8fH946.ltrans14.ltrans.o
                0x00017610                gen_jswrap_Math_LOG2E.8553
 .text.gen_jswrap_Math_LOG10E.8555
                0x00017630       0x20 C:\Users\apsyvert\AppData\Local\Temp\cc8fH946.ltrans14.ltrans.o
                0x00017630                gen_jswrap_Math_LOG10E.8555
 .text.gen_jswrap_Math_SQRT2.8557
                0x00017650       0x20 C:\Users\apsyvert\AppData\Local\Temp\cc8fH946.ltrans14.ltrans.o
                0x00017650                gen_jswrap_Math_SQRT2.8557
 .text.gen_jswrap_Math_SQRT1_2.8559
                0x00017670       0x20 C:\Users\apsyvert\AppData\Local\Temp\cc8fH946.ltrans14.ltrans.o
                0x00017670                gen_jswrap_Math_SQRT1_2.8559
 .text.gen_jswrap_Math_cos.8710
                0x00017690       0x40 C:\Users\apsyvert\AppData\Local\Temp\cc8fH946.ltrans14.ltrans.o
                0x00017690                gen_jswrap_Math_cos.8710
 .text.gen_jswrap_Math_random.8716
                0x000176d0       0x38 C:\Users\apsyvert\AppData\Local\Temp\cc8fH946.ltrans14.ltrans.o
                0x000176d0                gen_jswrap_Math_random.8716
 .text.gen_jswrap_Math_tan.8713
                0x00017708       0x58 C:\Users\apsyvert\AppData\Local\Temp\cc8fH946.ltrans14.ltrans.o
                0x00017708                gen_jswrap_Math_tan.8713
 .text.gen_jswrap_Math_min.8718
                0x00017760       0x20 C:\Users\apsyvert\AppData\Local\Temp\cc8fH946.ltrans14.ltrans.o
                0x00017760                gen_jswrap_Math_min.8718
 .text.gen_jswrap_Math_max.8721
                0x00017780       0x20 C:\Users\apsyvert\AppData\Local\Temp\cc8fH946.ltrans14.ltrans.o
                0x00017780                gen_jswrap_Math_max.8721
 .text.gen_jswrap_ArrayBufferView_ArrayBufferView.8724
                0x000177a0       0x10 C:\Users\apsyvert\AppData\Local\Temp\cc8fH946.ltrans14.ltrans.o
                0x000177a0                gen_jswrap_ArrayBufferView_ArrayBufferView.8724
 .text.gen_jswrap_E_E.8726
                0x000177b0       0x10 C:\Users\apsyvert\AppData\Local\Temp\cc8fH946.ltrans14.ltrans.o
                0x000177b0                gen_jswrap_E_E.8726
 .text.gen_jswrap_Flash_Flash.8728
                0x000177c0       0x10 C:\Users\apsyvert\AppData\Local\Temp\cc8fH946.ltrans14.ltrans.o
                0x000177c0                gen_jswrap_Flash_Flash.8728
 .text.gen_jswrap_console_console.8730
                0x000177d0       0x10 C:\Users\apsyvert\AppData\Local\Temp\cc8fH946.ltrans14.ltrans.o
                0x000177d0                gen_jswrap_console_console.8730
 .text.gen_jswrap_JSON_JSON.8732
                0x000177e0       0x10 C:\Users\apsyvert\AppData\Local\Temp\cc8fH946.ltrans14.ltrans.o
                0x000177e0                gen_jswrap_JSON_JSON.8732
 .text.gen_jswrap_Modules_Modules.8734
                0x000177f0       0x10 C:\Users\apsyvert\AppData\Local\Temp\cc8fH946.ltrans14.ltrans.o
                0x000177f0                gen_jswrap_Modules_Modules.8734
 .text.gen_jswrap_fs_fs.8736
                0x00017800       0x10 C:\Users\apsyvert\AppData\Local\Temp\cc8fH946.ltrans14.ltrans.o
                0x00017800                gen_jswrap_fs_fs.8736
 .text.gen_jswrap_process_process.8738
                0x00017810       0x10 C:\Users\apsyvert\AppData\Local\Temp\cc8fH946.ltrans14.ltrans.o
                0x00017810                gen_jswrap_process_process.8738
 .text.gen_jswrap_Serial_Serial.8740
                0x00017820       0x10 C:\Users\apsyvert\AppData\Local\Temp\cc8fH946.ltrans14.ltrans.o
                0x00017820                gen_jswrap_Serial_Serial.8740
 .text.gen_jswrap_I2C_I2C.8742
                0x00017830       0x10 C:\Users\apsyvert\AppData\Local\Temp\cc8fH946.ltrans14.ltrans.o
                0x00017830                gen_jswrap_I2C_I2C.8742
 .text.gen_jswrap_Math_Math.8744
                0x00017840       0x10 C:\Users\apsyvert\AppData\Local\Temp\cc8fH946.ltrans14.ltrans.o
                0x00017840                gen_jswrap_Math_Math.8744
 .text.jswBinarySearch
                0x00017850       0xbc C:\Users\apsyvert\AppData\Local\Temp\cc8fH946.ltrans14.ltrans.o
                0x00017850                jswBinarySearch
 .text.jswFindBuiltInFunction
                0x0001790c      0x7ac C:\Users\apsyvert\AppData\Local\Temp\cc8fH946.ltrans14.ltrans.o
                0x0001790c                jswFindBuiltInFunction
 .text.jsiTimerAdd
                0x000180b8       0x38 C:\Users\apsyvert\AppData\Local\Temp\cc8fH946.ltrans15.ltrans.o
                0x000180b8                jsiTimerAdd
 .text.jsiTimersChanged
                0x000180f0       0x20 C:\Users\apsyvert\AppData\Local\Temp\cc8fH946.ltrans15.ltrans.o
                0x000180f0                jsiTimersChanged
 .text.jsiDebuggerLoop
                0x00018110      0x1c0 C:\Users\apsyvert\AppData\Local\Temp\cc8fH946.ltrans15.ltrans.o
                0x00018110                jsiDebuggerLoop
 .text.jsiDebuggerPrintScope.4234
                0x000182d0      0x104 C:\Users\apsyvert\AppData\Local\Temp\cc8fH946.ltrans15.ltrans.o
 .text.jsiDebuggerLine
                0x000183d4      0x45c C:\Users\apsyvert\AppData\Local\Temp\cc8fH946.ltrans15.ltrans.o
                0x000183d4                jsiDebuggerLine
 .text.jshInitDevices
                0x00018830       0x58 C:\Users\apsyvert\AppData\Local\Temp\cc8fH946.ltrans15.ltrans.o
                0x00018830                jshInitDevices
 .text.jshTransmit
                0x00018888       0xe8 C:\Users\apsyvert\AppData\Local\Temp\cc8fH946.ltrans15.ltrans.o
                0x00018888                jshTransmit
 .text.jshGetCharToTransmit
                0x00018970      0x12c C:\Users\apsyvert\AppData\Local\Temp\cc8fH946.ltrans15.ltrans.o
                0x00018970                jshGetCharToTransmit
 .text.jshHasTransmitData
                0x00018a9c       0x2c C:\Users\apsyvert\AppData\Local\Temp\cc8fH946.ltrans15.ltrans.o
                0x00018a9c                jshHasTransmitData
 .text.jshIOEventOverflowed.4207
                0x00018ac8       0x20 C:\Users\apsyvert\AppData\Local\Temp\cc8fH946.ltrans15.ltrans.o
 .text.jshPushIOCharEvent
                0x00018ae8      0x198 C:\Users\apsyvert\AppData\Local\Temp\cc8fH946.ltrans15.ltrans.o
                0x00018ae8                jshPushIOCharEvent
 .text.jshPushIOWatchEvent
                0x00018c80       0x98 C:\Users\apsyvert\AppData\Local\Temp\cc8fH946.ltrans15.ltrans.o
                0x00018c80                jshPushIOWatchEvent
 .text.jshPushIOEvent.4196
                0x00018d18       0x80 C:\Users\apsyvert\AppData\Local\Temp\cc8fH946.ltrans15.ltrans.o
 .text.jshPopIOEvent
                0x00018d98       0x68 C:\Users\apsyvert\AppData\Local\Temp\cc8fH946.ltrans15.ltrans.o
                0x00018d98                jshPopIOEvent
 .text.jshPopIOEventOfType.4181
                0x00018e00      0x10c C:\Users\apsyvert\AppData\Local\Temp\cc8fH946.ltrans15.ltrans.o
 .text.jshHasEvents
                0x00018f0c       0x2c C:\Users\apsyvert\AppData\Local\Temp\cc8fH946.ltrans15.ltrans.o
                0x00018f0c                jshHasEvents
 .text.jshIsTopEvent
                0x00018f38       0x5c C:\Users\apsyvert\AppData\Local\Temp\cc8fH946.ltrans15.ltrans.o
                0x00018f38                jshIsTopEvent
 .text.jshGetEventsUsed
                0x00018f94       0x54 C:\Users\apsyvert\AppData\Local\Temp\cc8fH946.ltrans15.ltrans.o
                0x00018f94                jshGetEventsUsed
 .text.jshGetDeviceString
                0x00018fe8       0xd8 C:\Users\apsyvert\AppData\Local\Temp\cc8fH946.ltrans15.ltrans.o
                0x00018fe8                jshGetDeviceString
 .text.jshFromDeviceString
                0x000190c0      0x168 C:\Users\apsyvert\AppData\Local\Temp\cc8fH946.ltrans15.ltrans.o
                0x000190c0                jshFromDeviceString
 .text.jshSetFlowControlXON
                0x00019228       0x98 C:\Users\apsyvert\AppData\Local\Temp\cc8fH946.ltrans15.ltrans.o
                0x00019228                jshSetFlowControlXON
 .text.jshSetEventCallback
                0x000192c0       0x44 C:\Users\apsyvert\AppData\Local\Temp\cc8fH946.ltrans15.ltrans.o
                0x000192c0                jshSetEventCallback
 .text.jsvGetLastChild.8060.4142
                0x00019304       0x18 C:\Users\apsyvert\AppData\Local\Temp\cc8fH946.ltrans15.ltrans.o
 .text.jsvGetCharactersInVar.8161.4138
                0x0001931c       0x8c C:\Users\apsyvert\AppData\Local\Temp\cc8fH946.ltrans15.ltrans.o
 .text.jstUtilTimerSetupBuffer.8165
                0x000193a8       0x74 C:\Users\apsyvert\AppData\Local\Temp\cc8fH946.ltrans15.ltrans.o
                0x000193a8                jstUtilTimerSetupBuffer.8165
 .text.jstUtilTimerInterruptHandlerNextByte.8168.4132
                0x0001941c       0xd0 C:\Users\apsyvert\AppData\Local\Temp\cc8fH946.ltrans15.ltrans.o
 .text.jstUtilTimerInterruptHandlerByte.8110.4129
                0x000194ec       0x20 C:\Users\apsyvert\AppData\Local\Temp\cc8fH946.ltrans15.ltrans.o
 .text.jstUtilTimerInterruptHandler
                0x0001950c      0x470 C:\Users\apsyvert\AppData\Local\Temp\cc8fH946.ltrans15.ltrans.o
                0x0001950c                jstUtilTimerInterruptHandler
 .text.jstUtilTimerIsRunning
                0x0001997c       0x18 C:\Users\apsyvert\AppData\Local\Temp\cc8fH946.ltrans15.ltrans.o
                0x0001997c                jstUtilTimerIsRunning
 .text.jstUtilTimerWaitEmpty
                0x00019994       0x54 C:\Users\apsyvert\AppData\Local\Temp\cc8fH946.ltrans15.ltrans.o
                0x00019994                jstUtilTimerWaitEmpty
 .text.utilTimerIsFull.8177
                0x000199e8       0x3c C:\Users\apsyvert\AppData\Local\Temp\cc8fH946.ltrans15.ltrans.o
                0x000199e8                utilTimerIsFull.8177
 .text.utilTimerInsertTask
                0x00019a24      0x1a4 C:\Users\apsyvert\AppData\Local\Temp\cc8fH946.ltrans15.ltrans.o
                0x00019a24                utilTimerInsertTask
 .text.utilTimerRemoveTask
                0x00019bc8      0x110 C:\Users\apsyvert\AppData\Local\Temp\cc8fH946.ltrans15.ltrans.o
                0x00019bc8                utilTimerRemoveTask
 .text.utilTimerGetLastTask
                0x00019cd8       0xc4 C:\Users\apsyvert\AppData\Local\Temp\cc8fH946.ltrans15.ltrans.o
                0x00019cd8                utilTimerGetLastTask
 .text.jstBufferTaskChecker.8148
                0x00019d9c       0x64 C:\Users\apsyvert\AppData\Local\Temp\cc8fH946.ltrans15.ltrans.o
                0x00019d9c                jstBufferTaskChecker.8148
 .text.jstPinTaskChecker.8153
                0x00019e00       0x64 C:\Users\apsyvert\AppData\Local\Temp\cc8fH946.ltrans15.ltrans.o
                0x00019e00                jstPinTaskChecker.8153
 .text.jsiHandleChar.4132
                0x00019e64      0x3f4 C:\Users\apsyvert\AppData\Local\Temp\cc8fH946.ltrans16.ltrans.o
 .text.jsiQueueEvents
                0x0001a258       0xac C:\Users\apsyvert\AppData\Local\Temp\cc8fH946.ltrans16.ltrans.o
                0x0001a258                jsiQueueEvents
 .text.jsiQueueObjectCallbacks
                0x0001a304       0x38 C:\Users\apsyvert\AppData\Local\Temp\cc8fH946.ltrans16.ltrans.o
                0x0001a304                jsiQueueObjectCallbacks
 .text.jsiExecuteObjectCallbacks.4110
                0x0001a33c       0x3c C:\Users\apsyvert\AppData\Local\Temp\cc8fH946.ltrans16.ltrans.o
 .text.jsiExecuteEvents.4108
                0x0001a378      0x108 C:\Users\apsyvert\AppData\Local\Temp\cc8fH946.ltrans16.ltrans.o
 .text.jsiExecuteEventCallbackArgsArray.4103
                0x0001a480       0xa0 C:\Users\apsyvert\AppData\Local\Temp\cc8fH946.ltrans16.ltrans.o
 .text.jsiExecuteEventCallback
                0x0001a520      0x140 C:\Users\apsyvert\AppData\Local\Temp\cc8fH946.ltrans16.ltrans.o
                0x0001a520                jsiExecuteEventCallback
 .text.jsiShouldExecuteWatch.4091
                0x0001a660       0x5c C:\Users\apsyvert\AppData\Local\Temp\cc8fH946.ltrans16.ltrans.o
 .text.jsiIsWatchingPin
                0x0001a6bc       0x98 C:\Users\apsyvert\AppData\Local\Temp\cc8fH946.ltrans16.ltrans.o
                0x0001a6bc                jsiIsWatchingPin
 .text.jsiHandleIOEventForUSART.4037
                0x0001a754      0x13c C:\Users\apsyvert\AppData\Local\Temp\cc8fH946.ltrans16.ltrans.o
 .text.jsiHandleIOEventForConsole
                0x0001a890       0x50 C:\Users\apsyvert\AppData\Local\Temp\cc8fH946.ltrans16.ltrans.o
                0x0001a890                jsiHandleIOEventForConsole
 .text.jsiIdle.4021
                0x0001a8e0      0xc2c C:\Users\apsyvert\AppData\Local\Temp\cc8fH946.ltrans16.ltrans.o
 .text.jsiLoop  0x0001b50c       0x70 C:\Users\apsyvert\AppData\Local\Temp\cc8fH946.ltrans16.ltrans.o
                0x0001b50c                jsiLoop
 .text.jsiDumpState
                0x0001b57c      0x478 C:\Users\apsyvert\AppData\Local\Temp\cc8fH946.ltrans16.ltrans.o
                0x0001b57c                jsiDumpState
 .text.jsiClearInputLine
                0x0001b9f4       0x28 C:\Users\apsyvert\AppData\Local\Temp\cc8fH946.ltrans17.ltrans.o
                0x0001b9f4                jsiClearInputLine
 .text.jsiSetBusy
                0x0001ba1c       0x68 C:\Users\apsyvert\AppData\Local\Temp\cc8fH946.ltrans17.ltrans.o
                0x0001ba1c                jsiSetBusy
 .text.jsiSetSleep
                0x0001ba84       0x34 C:\Users\apsyvert\AppData\Local\Temp\cc8fH946.ltrans17.ltrans.o
                0x0001ba84                jsiSetSleep
 .text._jsiInitNamedArray.7398.4168
                0x0001bab8       0x48 C:\Users\apsyvert\AppData\Local\Temp\cc8fH946.ltrans17.ltrans.o
 .text.jsiSoftInit
                0x0001bb00      0x208 C:\Users\apsyvert\AppData\Local\Temp\cc8fH946.ltrans17.ltrans.o
                0x0001bb00                jsiSoftInit
 .text.jsiDumpJSON
                0x0001bd08       0x60 C:\Users\apsyvert\AppData\Local\Temp\cc8fH946.ltrans17.ltrans.o
                0x0001bd08                jsiDumpJSON
 .text.jsiDumpEvent.7408.4153
                0x0001bd68       0x54 C:\Users\apsyvert\AppData\Local\Temp\cc8fH946.ltrans17.ltrans.o
 .text.jsiDumpObjectState
                0x0001bdbc      0x194 C:\Users\apsyvert\AppData\Local\Temp\cc8fH946.ltrans17.ltrans.o
                0x0001bdbc                jsiDumpObjectState
 .text.jsiDumpSerialInitialisation.4141
                0x0001bf50       0xdc C:\Users\apsyvert\AppData\Local\Temp\cc8fH946.ltrans17.ltrans.o
 .text.jsiDumpDeviceInitialisation.4136
                0x0001c02c       0x80 C:\Users\apsyvert\AppData\Local\Temp\cc8fH946.ltrans17.ltrans.o
 .text.jsiDumpHardwareInitialisation
                0x0001c0ac      0x214 C:\Users\apsyvert\AppData\Local\Temp\cc8fH946.ltrans17.ltrans.o
                0x0001c0ac                jsiDumpHardwareInitialisation
 .text.jsiSoftKill
                0x0001c2c0      0x140 C:\Users\apsyvert\AppData\Local\Temp\cc8fH946.ltrans17.ltrans.o
                0x0001c2c0                jsiSoftKill
 .text.jsiSemiInit
                0x0001c400       0xa4 C:\Users\apsyvert\AppData\Local\Temp\cc8fH946.ltrans17.ltrans.o
                0x0001c400                jsiSemiInit
 .text.jsiInit  0x0001c4a4       0x28 C:\Users\apsyvert\AppData\Local\Temp\cc8fH946.ltrans17.ltrans.o
                0x0001c4a4                jsiInit
 .text.jsiOneSecondAfterStartup
                0x0001c4cc        0xc C:\Users\apsyvert\AppData\Local\Temp\cc8fH946.ltrans17.ltrans.o
                0x0001c4cc                jsiOneSecondAfterStartup
 .text.jsiKill  0x0001c4d8       0x10 C:\Users\apsyvert\AppData\Local\Temp\cc8fH946.ltrans17.ltrans.o
                0x0001c4d8                jsiKill
 .text.jsiCountBracketsInInput.4111
                0x0001c4e8       0xac C:\Users\apsyvert\AppData\Local\Temp\cc8fH946.ltrans17.ltrans.o
 .text.jsiFreeMoreMemory
                0x0001c594       0x50 C:\Users\apsyvert\AppData\Local\Temp\cc8fH946.ltrans17.ltrans.o
                0x0001c594                jsiFreeMoreMemory
 .text.jsiHistoryAddLine.4106
                0x0001c5e4       0x6c C:\Users\apsyvert\AppData\Local\Temp\cc8fH946.ltrans17.ltrans.o
 .text.jsiGetHistoryLine.4103
                0x0001c650       0xdc C:\Users\apsyvert\AppData\Local\Temp\cc8fH946.ltrans17.ltrans.o
 .text.jsiIsInHistory
                0x0001c72c       0x54 C:\Users\apsyvert\AppData\Local\Temp\cc8fH946.ltrans17.ltrans.o
                0x0001c72c                jsiIsInHistory
 .text.jsiReplaceInputLine
                0x0001c780       0x7c C:\Users\apsyvert\AppData\Local\Temp\cc8fH946.ltrans17.ltrans.o
                0x0001c780                jsiReplaceInputLine
 .text.jsiChangeToHistory
                0x0001c7fc       0x90 C:\Users\apsyvert\AppData\Local\Temp\cc8fH946.ltrans17.ltrans.o
                0x0001c7fc                jsiChangeToHistory
 .text.jsiIsAboutToEditInputLine.4092
                0x0001c88c       0x58 C:\Users\apsyvert\AppData\Local\Temp\cc8fH946.ltrans17.ltrans.o
 .text.jsiHandleDelete
                0x0001c8e4      0x1c0 C:\Users\apsyvert\AppData\Local\Temp\cc8fH946.ltrans17.ltrans.o
                0x0001c8e4                jsiHandleDelete
 .text.jsiHandleHome
                0x0001caa4       0x4c C:\Users\apsyvert\AppData\Local\Temp\cc8fH946.ltrans17.ltrans.o
                0x0001caa4                jsiHandleHome
 .text.jsiHandleEnd
                0x0001caf0       0x70 C:\Users\apsyvert\AppData\Local\Temp\cc8fH946.ltrans17.ltrans.o
                0x0001caf0                jsiHandleEnd
 .text.jsiHandlePageUpDown
                0x0001cb60       0x78 C:\Users\apsyvert\AppData\Local\Temp\cc8fH946.ltrans17.ltrans.o
                0x0001cb60                jsiHandlePageUpDown
 .text.jsiHandleMoveUpDown
                0x0001cbd8       0xa0 C:\Users\apsyvert\AppData\Local\Temp\cc8fH946.ltrans17.ltrans.o
                0x0001cbd8                jsiHandleMoveUpDown
 .text.jsiAtEndOfInputLine.4077
                0x0001cc78       0x60 C:\Users\apsyvert\AppData\Local\Temp\cc8fH946.ltrans17.ltrans.o
 .text.jsiCheckErrors
                0x0001ccd8       0x70 C:\Users\apsyvert\AppData\Local\Temp\cc8fH946.ltrans17.ltrans.o
                0x0001ccd8                jsiCheckErrors
 .text.jsiAppendStringToInputLine
                0x0001cd48       0xf4 C:\Users\apsyvert\AppData\Local\Temp\cc8fH946.ltrans17.ltrans.o
                0x0001cd48                jsiAppendStringToInputLine
 .text.jsiTabComplete_findCommon.4017
                0x0001ce3c       0x7c C:\Users\apsyvert\AppData\Local\Temp\cc8fH946.ltrans17.ltrans.o
 .text.jsiTabComplete_printCommon.4068
                0x0001ceb8       0x94 C:\Users\apsyvert\AppData\Local\Temp\cc8fH946.ltrans17.ltrans.o
 .text.jsiTabComplete
                0x0001cf4c      0x2e8 C:\Users\apsyvert\AppData\Local\Temp\cc8fH946.ltrans17.ltrans.o
                0x0001cf4c                jsiTabComplete
 .text.jsiHandleNewLine
                0x0001d234      0x1f8 C:\Users\apsyvert\AppData\Local\Temp\cc8fH946.ltrans17.ltrans.o
                0x0001d234                jsiHandleNewLine
 .text.jspNewBuiltin
                0x0001d42c       0x28 C:\Users\apsyvert\AppData\Local\Temp\cc8fH946.ltrans18.ltrans.o
                0x0001d42c                jspNewBuiltin
 .text.jspNewPrototype
                0x0001d454       0x80 C:\Users\apsyvert\AppData\Local\Temp\cc8fH946.ltrans18.ltrans.o
                0x0001d454                jspNewPrototype
 .text.jspNewObject
                0x0001d4d4       0xc4 C:\Users\apsyvert\AppData\Local\Temp\cc8fH946.ltrans18.ltrans.o
                0x0001d4d4                jspNewObject
 .text.jspIsConstructor
                0x0001d598       0x48 C:\Users\apsyvert\AppData\Local\Temp\cc8fH946.ltrans18.ltrans.o
                0x0001d598                jspIsConstructor
 .text.jspSoftInit
                0x0001d5e0       0x34 C:\Users\apsyvert\AppData\Local\Temp\cc8fH946.ltrans18.ltrans.o
                0x0001d5e0                jspSoftInit
 .text.jspSoftKill
                0x0001d614       0x2c C:\Users\apsyvert\AppData\Local\Temp\cc8fH946.ltrans18.ltrans.o
                0x0001d614                jspSoftKill
 .text.jspInit  0x0001d640        0xc C:\Users\apsyvert\AppData\Local\Temp\cc8fH946.ltrans18.ltrans.o
                0x0001d640                jspInit
 .text.jspKill  0x0001d64c       0x24 C:\Users\apsyvert\AppData\Local\Temp\cc8fH946.ltrans18.ltrans.o
                0x0001d64c                jspKill
 .text.jspEvaluateVar
                0x0001d670       0xf4 C:\Users\apsyvert\AppData\Local\Temp\cc8fH946.ltrans18.ltrans.o
                0x0001d670                jspEvaluateVar
 .text.jspExecuteFunction
                0x0001d764       0x80 C:\Users\apsyvert\AppData\Local\Temp\cc8fH946.ltrans18.ltrans.o
                0x0001d764                jspExecuteFunction
 .text.jspEvaluateModule
                0x0001d7e4       0xcc C:\Users\apsyvert\AppData\Local\Temp\cc8fH946.ltrans18.ltrans.o
                0x0001d7e4                jspEvaluateModule
 .text.jspGetPrototypeOwner
                0x0001d8b0       0x44 C:\Users\apsyvert\AppData\Local\Temp\cc8fH946.ltrans18.ltrans.o
                0x0001d8b0                jspGetPrototypeOwner
 .text.itostr.6928.4311
                0x0001d8f4       0x20 C:\Users\apsyvert\AppData\Local\Temp\cc8fH946.ltrans18.ltrans.o
 .text.jshIsPinValid
                0x0001d914       0x38 C:\Users\apsyvert\AppData\Local\Temp\cc8fH946.ltrans18.ltrans.o
                0x0001d914                jshIsPinValid
 .text.jshGetPinFromString
                0x0001d94c      0x234 C:\Users\apsyvert\AppData\Local\Temp\cc8fH946.ltrans18.ltrans.o
                0x0001d94c                jshGetPinFromString
 .text.jshGetPinString
                0x0001db80      0x10c C:\Users\apsyvert\AppData\Local\Temp\cc8fH946.ltrans18.ltrans.o
                0x0001db80                jshGetPinString
 .text.jshGetPinFromVar
                0x0001dc8c       0x4c C:\Users\apsyvert\AppData\Local\Temp\cc8fH946.ltrans18.ltrans.o
                0x0001dc8c                jshGetPinFromVar
 .text.jshGetPinFromVarAndUnLock
                0x0001dcd8       0x24 C:\Users\apsyvert\AppData\Local\Temp\cc8fH946.ltrans18.ltrans.o
                0x0001dcd8                jshGetPinFromVarAndUnLock
 .text.jshGetPinStateIsManual
                0x0001dcfc       0x40 C:\Users\apsyvert\AppData\Local\Temp\cc8fH946.ltrans18.ltrans.o
                0x0001dcfc                jshGetPinStateIsManual
 .text.jshSetPinStateIsManual
                0x0001dd3c       0x60 C:\Users\apsyvert\AppData\Local\Temp\cc8fH946.ltrans18.ltrans.o
                0x0001dd3c                jshSetPinStateIsManual
 .text.jshPinInput
                0x0001dd9c       0x60 C:\Users\apsyvert\AppData\Local\Temp\cc8fH946.ltrans18.ltrans.o
                0x0001dd9c                jshPinInput
 .text.jshPinOutput
                0x0001ddfc       0x5c C:\Users\apsyvert\AppData\Local\Temp\cc8fH946.ltrans18.ltrans.o
                0x0001ddfc                jshPinOutput
 .text.jshPinFunctionToString
                0x0001de58      0x278 C:\Users\apsyvert\AppData\Local\Temp\cc8fH946.ltrans18.ltrans.o
                0x0001de58                jshPinFunctionToString
 .text.jshGetDeviceFor.4248
                0x0001e0d0       0x78 C:\Users\apsyvert\AppData\Local\Temp\cc8fH946.ltrans18.ltrans.o
 .text.jshGetDeviceObjectFor
                0x0001e148       0x7c C:\Users\apsyvert\AppData\Local\Temp\cc8fH946.ltrans18.ltrans.o
                0x0001e148                jshGetDeviceObjectFor
 .text.isWhitespace.7150
                0x0001e1c4       0x4c C:\Users\apsyvert\AppData\Local\Temp\cc8fH946.ltrans18.ltrans.o
                0x0001e1c4                isWhitespace.7150
 .text.itostr.7289
                0x0001e210       0x20 C:\Users\apsyvert\AppData\Local\Temp\cc8fH946.ltrans18.ltrans.o
                0x0001e210                itostr.7289
 .text.jsvGetFirstChild.7156.4229
                0x0001e230       0x18 C:\Users\apsyvert\AppData\Local\Temp\cc8fH946.ltrans18.ltrans.o
 .text.jsvGetNextSibling.7204
                0x0001e248       0x18 C:\Users\apsyvert\AppData\Local\Temp\cc8fH946.ltrans18.ltrans.o
                0x0001e248                jsvGetNextSibling.7204
 .text.jsvGetPrevSibling.7207
                0x0001e260       0x18 C:\Users\apsyvert\AppData\Local\Temp\cc8fH946.ltrans18.ltrans.o
                0x0001e260                jsvGetPrevSibling.7207
 .text.jsvNewFromEmptyString.7253
                0x0001e278       0x18 C:\Users\apsyvert\AppData\Local\Temp\cc8fH946.ltrans18.ltrans.o
                0x0001e278                jsvNewFromEmptyString.7253
 .text.jsvAppendCharacter.7282
                0x0001e290       0x20 C:\Users\apsyvert\AppData\Local\Temp\cc8fH946.ltrans18.ltrans.o
                0x0001e290                jsvAppendCharacter.7282
 .text._jsvGetIntegerAndUnLock.7271
                0x0001e2b0       0x20 C:\Users\apsyvert\AppData\Local\Temp\cc8fH946.ltrans18.ltrans.o
                0x0001e2b0                _jsvGetIntegerAndUnLock.7271
 .text._jsvGetBoolAndUnLock.7286
                0x0001e2d0       0x24 C:\Users\apsyvert\AppData\Local\Temp\cc8fH946.ltrans18.ltrans.o
                0x0001e2d0                _jsvGetBoolAndUnLock.7286
 .text.jsvArrayIsEmpty.7258
                0x0001e2f4       0x48 C:\Users\apsyvert\AppData\Local\Temp\cc8fH946.ltrans18.ltrans.o
                0x0001e2f4                jsvArrayIsEmpty.7258
 .text.jsvStringIteratorGetChar.7210.4205
                0x0001e33c       0x2c C:\Users\apsyvert\AppData\Local\Temp\cc8fH946.ltrans18.ltrans.o
 .text.jsvStringIteratorHasChar.7221.4202
                0x0001e368       0x28 C:\Users\apsyvert\AppData\Local\Temp\cc8fH946.ltrans18.ltrans.o
 .text.jsvStringIteratorGetIndex.7224
                0x0001e390       0x20 C:\Users\apsyvert\AppData\Local\Temp\cc8fH946.ltrans18.ltrans.o
                0x0001e390                jsvStringIteratorGetIndex.7224
 .text.jsvStringIteratorFree.7247
                0x0001e3b0       0x18 C:\Users\apsyvert\AppData\Local\Temp\cc8fH946.ltrans18.ltrans.o
                0x0001e3b0                jsvStringIteratorFree.7247
 .text.jsvObjectIteratorNew.7261
                0x0001e3c8       0x7c C:\Users\apsyvert\AppData\Local\Temp\cc8fH946.ltrans18.ltrans.o
                0x0001e3c8                jsvObjectIteratorNew.7261
 .text.jsvObjectIteratorGetKey.7268
                0x0001e444       0x28 C:\Users\apsyvert\AppData\Local\Temp\cc8fH946.ltrans18.ltrans.o
                0x0001e444                jsvObjectIteratorGetKey.7268
 .text.jsvObjectIteratorGetValue.7265
                0x0001e46c       0x28 C:\Users\apsyvert\AppData\Local\Temp\cc8fH946.ltrans18.ltrans.o
                0x0001e46c                jsvObjectIteratorGetValue.7265
 .text.jsvObjectIteratorHasValue.7227
                0x0001e494       0x24 C:\Users\apsyvert\AppData\Local\Temp\cc8fH946.ltrans18.ltrans.o
                0x0001e494                jsvObjectIteratorHasValue.7227
 .text.jsvObjectIteratorNext.7255
                0x0001e4b8       0x48 C:\Users\apsyvert\AppData\Local\Temp\cc8fH946.ltrans18.ltrans.o
                0x0001e4b8                jsvObjectIteratorNext.7255
 .text.jsvObjectIteratorRemoveAndGotoNext.7274
                0x0001e500       0x54 C:\Users\apsyvert\AppData\Local\Temp\cc8fH946.ltrans18.ltrans.o
                0x0001e500                jsvObjectIteratorRemoveAndGotoNext.7274
 .text.jsvObjectIteratorFree.7250
                0x0001e554       0x18 C:\Users\apsyvert\AppData\Local\Temp\cc8fH946.ltrans18.ltrans.o
                0x0001e554                jsvObjectIteratorFree.7250
 .text.jshUSARTInitInfo.7233.4155
                0x0001e56c       0x58 C:\Users\apsyvert\AppData\Local\Temp\cc8fH946.ltrans18.ltrans.o
 .text.jsiGetDeviceFromClass
                0x0001e5c4       0x34 C:\Users\apsyvert\AppData\Local\Temp\cc8fH946.ltrans18.ltrans.o
                0x0001e5c4                jsiGetDeviceFromClass
 .text.jsiGetClassNameFromDevice
                0x0001e5f8       0x30 C:\Users\apsyvert\AppData\Local\Temp\cc8fH946.ltrans18.ltrans.o
                0x0001e5f8                jsiGetClassNameFromDevice
 .text.jsiEcho  0x0001e628       0x24 C:\Users\apsyvert\AppData\Local\Temp\cc8fH946.ltrans18.ltrans.o
                0x0001e628                jsiEcho
 .text.jsiShowInputLine.7304
                0x0001e64c       0x30 C:\Users\apsyvert\AppData\Local\Temp\cc8fH946.ltrans18.ltrans.o
                0x0001e64c                jsiShowInputLine.7304
 .text.jsiInputLineCursorMoved.7306
                0x0001e67c       0x2c C:\Users\apsyvert\AppData\Local\Temp\cc8fH946.ltrans18.ltrans.o
                0x0001e67c                jsiInputLineCursorMoved.7306
 .text.jsiAppendToInputLine.7308
                0x0001e6a8       0x5c C:\Users\apsyvert\AppData\Local\Temp\cc8fH946.ltrans18.ltrans.o
                0x0001e6a8                jsiAppendToInputLine.7308
 .text.jsiSetConsoleDevice
                0x0001e704       0x9c C:\Users\apsyvert\AppData\Local\Temp\cc8fH946.ltrans18.ltrans.o
                0x0001e704                jsiSetConsoleDevice
 .text.jsiGetConsoleDevice
                0x0001e7a0       0x18 C:\Users\apsyvert\AppData\Local\Temp\cc8fH946.ltrans18.ltrans.o
                0x0001e7a0                jsiGetConsoleDevice
 .text.jsiConsolePrintChar
                0x0001e7b8       0x24 C:\Users\apsyvert\AppData\Local\Temp\cc8fH946.ltrans18.ltrans.o
                0x0001e7b8                jsiConsolePrintChar
 .text.jsiConsolePrintString
                0x0001e7dc       0x34 C:\Users\apsyvert\AppData\Local\Temp\cc8fH946.ltrans18.ltrans.o
                0x0001e7dc                jsiConsolePrintString
 .text.jsiConsolePrintf
                0x0001e810       0x2c C:\Users\apsyvert\AppData\Local\Temp\cc8fH946.ltrans18.ltrans.o
                0x0001e810                jsiConsolePrintf
 .text.jsiConsolePrintStringVarUntilEOL
                0x0001e83c       0xa0 C:\Users\apsyvert\AppData\Local\Temp\cc8fH946.ltrans18.ltrans.o
                0x0001e83c                jsiConsolePrintStringVarUntilEOL
 .text.jsiConsolePrintStringVarWithNewLineChar
                0x0001e8dc       0x88 C:\Users\apsyvert\AppData\Local\Temp\cc8fH946.ltrans18.ltrans.o
                0x0001e8dc                jsiConsolePrintStringVarWithNewLineChar
 .text.jsiConsolePrintStringVar
                0x0001e964       0x18 C:\Users\apsyvert\AppData\Local\Temp\cc8fH946.ltrans18.ltrans.o
                0x0001e964                jsiConsolePrintStringVar
 .text.jsiConsoleEraseStringVarBackwards
                0x0001e97c       0xc8 C:\Users\apsyvert\AppData\Local\Temp\cc8fH946.ltrans18.ltrans.o
                0x0001e97c                jsiConsoleEraseStringVarBackwards
 .text.jsiConsoleEraseStringVarFrom
                0x0001ea44      0x140 C:\Users\apsyvert\AppData\Local\Temp\cc8fH946.ltrans18.ltrans.o
                0x0001ea44                jsiConsoleEraseStringVarFrom
 .text.jsiMoveCursor
                0x0001eb84       0x7c C:\Users\apsyvert\AppData\Local\Temp\cc8fH946.ltrans18.ltrans.o
                0x0001eb84                jsiMoveCursor
 .text.jsiMoveCursorChar
                0x0001ec00       0x4c C:\Users\apsyvert\AppData\Local\Temp\cc8fH946.ltrans18.ltrans.o
                0x0001ec00                jsiMoveCursorChar
 .text.jsiConsoleRemoveInputLine
                0x0001ec4c       0x8c C:\Users\apsyvert\AppData\Local\Temp\cc8fH946.ltrans18.ltrans.o
                0x0001ec4c                jsiConsoleRemoveInputLine
 .text.jsiConsoleReturnInputLine
                0x0001ecd8       0x78 C:\Users\apsyvert\AppData\Local\Temp\cc8fH946.ltrans18.ltrans.o
                0x0001ecd8                jsiConsoleReturnInputLine
 .text.jspeStatementVar.4078
                0x0001ed50      0x1e4 C:\Users\apsyvert\AppData\Local\Temp\cc8fH946.ltrans19.ltrans.o
 .text.jspeStatementIf.4076
                0x0001ef34      0x1a0 C:\Users\apsyvert\AppData\Local\Temp\cc8fH946.ltrans19.ltrans.o
 .text.jspeStatementSwitch.4074
                0x0001f0d4      0x354 C:\Users\apsyvert\AppData\Local\Temp\cc8fH946.ltrans19.ltrans.o
 .text.jspeStatementDoOrWhile.4070
                0x0001f428      0x438 C:\Users\apsyvert\AppData\Local\Temp\cc8fH946.ltrans19.ltrans.o
 .text.jspeStatementFor.4068
                0x0001f860      0x918 C:\Users\apsyvert\AppData\Local\Temp\cc8fH946.ltrans19.ltrans.o
 .text.jspeStatementTry.4066
                0x00020178      0x274 C:\Users\apsyvert\AppData\Local\Temp\cc8fH946.ltrans19.ltrans.o
 .text.jspeStatementReturn.4064
                0x000203ec       0xb4 C:\Users\apsyvert\AppData\Local\Temp\cc8fH946.ltrans19.ltrans.o
 .text.jspeStatementThrow.4062
                0x000204a0       0x6c C:\Users\apsyvert\AppData\Local\Temp\cc8fH946.ltrans19.ltrans.o
 .text.jspeStatementFunctionDecl.4060
                0x0002050c      0x104 C:\Users\apsyvert\AppData\Local\Temp\cc8fH946.ltrans19.ltrans.o
 .text.jspeStatement
                0x00020610      0x430 C:\Users\apsyvert\AppData\Local\Temp\cc8fH946.ltrans19.ltrans.o
                0x00020610                jspeStatement
 .text.jspeFactorFunctionCall.4108
                0x00020a40      0x144 C:\Users\apsyvert\AppData\Local\Temp\cc8fH946.ltrans20.ltrans.o
 .text.jspeFactorObject.4106
                0x00020b84      0x1fc C:\Users\apsyvert\AppData\Local\Temp\cc8fH946.ltrans20.ltrans.o
 .text.jspeFactorArray.4104
                0x00020d80      0x13c C:\Users\apsyvert\AppData\Local\Temp\cc8fH946.ltrans20.ltrans.o
 .text.jspEnsureIsPrototype
                0x00020ebc       0x98 C:\Users\apsyvert\AppData\Local\Temp\cc8fH946.ltrans20.ltrans.o
                0x00020ebc                jspEnsureIsPrototype
 .text.jspeFactorTypeOf.4098
                0x00020f54       0x98 C:\Users\apsyvert\AppData\Local\Temp\cc8fH946.ltrans20.ltrans.o
 .text.jspeFactorDelete.4096
                0x00020fec       0xec C:\Users\apsyvert\AppData\Local\Temp\cc8fH946.ltrans20.ltrans.o
 .text.jspeFactor.4094
                0x000210d8      0x4d0 C:\Users\apsyvert\AppData\Local\Temp\cc8fH946.ltrans20.ltrans.o
 .text.__jspePostfixExpression.4091
                0x000215a8       0xcc C:\Users\apsyvert\AppData\Local\Temp\cc8fH946.ltrans20.ltrans.o
 .text.jspePostfixExpression.4089
                0x00021674       0xc4 C:\Users\apsyvert\AppData\Local\Temp\cc8fH946.ltrans20.ltrans.o
 .text.jspeUnaryExpression.4087
                0x00021738      0x150 C:\Users\apsyvert\AppData\Local\Temp\cc8fH946.ltrans20.ltrans.o
 .text.jspeGetBinaryExpressionPrecedence.4084
                0x00021888       0xec C:\Users\apsyvert\AppData\Local\Temp\cc8fH946.ltrans20.ltrans.o
 .text.__jspeBinaryExpression.4080
                0x00021974      0x340 C:\Users\apsyvert\AppData\Local\Temp\cc8fH946.ltrans20.ltrans.o
 .text.jspeBinaryExpression.4078
                0x00021cb4       0x18 C:\Users\apsyvert\AppData\Local\Temp\cc8fH946.ltrans20.ltrans.o
 .text.__jspeConditionalExpression.4075
                0x00021ccc      0x174 C:\Users\apsyvert\AppData\Local\Temp\cc8fH946.ltrans20.ltrans.o
 .text.jspeConditionalExpression.4073
                0x00021e40       0x18 C:\Users\apsyvert\AppData\Local\Temp\cc8fH946.ltrans20.ltrans.o
 .text.__jspeAssignmentExpression.4070
                0x00021e58      0x2b0 C:\Users\apsyvert\AppData\Local\Temp\cc8fH946.ltrans20.ltrans.o
 .text.jspeAssignmentExpression
                0x00022108       0x18 C:\Users\apsyvert\AppData\Local\Temp\cc8fH946.ltrans20.ltrans.o
                0x00022108                jspeAssignmentExpression
 .text.jspeExpression
                0x00022120       0x6c C:\Users\apsyvert\AppData\Local\Temp\cc8fH946.ltrans20.ltrans.o
                0x00022120                jspeExpression
 .text.jspeBlockNoBrackets
                0x0002218c      0x108 C:\Users\apsyvert\AppData\Local\Temp\cc8fH946.ltrans20.ltrans.o
                0x0002218c                jspeBlockNoBrackets
 .text.jspeBlock
                0x00022294       0x40 C:\Users\apsyvert\AppData\Local\Temp\cc8fH946.ltrans20.ltrans.o
                0x00022294                jspeBlock
 .text.jspeBlockOrStatement
                0x000222d4       0x64 C:\Users\apsyvert\AppData\Local\Temp\cc8fH946.ltrans20.ltrans.o
                0x000222d4                jspeBlockOrStatement
 .text.jspParse
                0x00022338       0x40 C:\Users\apsyvert\AppData\Local\Temp\cc8fH946.ltrans20.ltrans.o
                0x00022338                jspParse
 .text.jspCheckStackPosition
                0x00022378       0x2c C:\Users\apsyvert\AppData\Local\Temp\cc8fH946.ltrans21.ltrans.o
                0x00022378                jspCheckStackPosition
 .text.jspSetNoExecute
                0x000223a4       0x20 C:\Users\apsyvert\AppData\Local\Temp\cc8fH946.ltrans21.ltrans.o
                0x000223a4                jspSetNoExecute
 .text.jspAppendStackTrace
                0x000223c4       0x64 C:\Users\apsyvert\AppData\Local\Temp\cc8fH946.ltrans21.ltrans.o
                0x000223c4                jspAppendStackTrace
 .text.jspSetException
                0x00022428       0x94 C:\Users\apsyvert\AppData\Local\Temp\cc8fH946.ltrans21.ltrans.o
                0x00022428                jspSetException
 .text.jspGetException
                0x000224bc       0x4c C:\Users\apsyvert\AppData\Local\Temp\cc8fH946.ltrans21.ltrans.o
                0x000224bc                jspGetException
 .text.jspGetStackTrace
                0x00022508       0x4c C:\Users\apsyvert\AppData\Local\Temp\cc8fH946.ltrans21.ltrans.o
                0x00022508                jspGetStackTrace
 .text.jspeFunctionArguments.4109
                0x00022554       0xdc C:\Users\apsyvert\AppData\Local\Temp\cc8fH946.ltrans21.ltrans.o
 .text.jspeFunctionDefinition
                0x00022630      0x2e0 C:\Users\apsyvert\AppData\Local\Temp\cc8fH946.ltrans21.ltrans.o
                0x00022630                jspeFunctionDefinition
 .text.jspeParseFunctionCallBrackets.4104
                0x00022910       0xa4 C:\Users\apsyvert\AppData\Local\Temp\cc8fH946.ltrans21.ltrans.o
 .text.jspeFunctionCall
                0x000229b4      0xd70 C:\Users\apsyvert\AppData\Local\Temp\cc8fH946.ltrans21.ltrans.o
                0x000229b4                jspeFunctionCall
 .text.jspGetNamedVariable
                0x00023724       0xb0 C:\Users\apsyvert\AppData\Local\Temp\cc8fH946.ltrans21.ltrans.o
                0x00023724                jspGetNamedVariable
 .text.jspGetNamedFieldInParents.6549.4084
                0x000237d4       0xe4 C:\Users\apsyvert\AppData\Local\Temp\cc8fH946.ltrans21.ltrans.o
 .text.jspGetNamedField
                0x000238b8       0x98 C:\Users\apsyvert\AppData\Local\Temp\cc8fH946.ltrans21.ltrans.o
                0x000238b8                jspGetNamedField
 .text.jspGetVarNamedField
                0x00023950      0x16c C:\Users\apsyvert\AppData\Local\Temp\cc8fH946.ltrans21.ltrans.o
                0x00023950                jspGetVarNamedField
 .text.jspeFactorMember
                0x00023abc      0x24c C:\Users\apsyvert\AppData\Local\Temp\cc8fH946.ltrans21.ltrans.o
                0x00023abc                jspeFactorMember
 .text.jspeConstruct
                0x00023d08       0xdc C:\Users\apsyvert\AppData\Local\Temp\cc8fH946.ltrans21.ltrans.o
                0x00023d08                jspeConstruct
 .text.jsWarn   0x00023de4       0x44 C:\Users\apsyvert\AppData\Local\Temp\cc8fH946.ltrans22.ltrans.o
                0x00023de4                jsWarn
 .text.jsExceptionHere
                0x00023e28       0xe8 C:\Users\apsyvert\AppData\Local\Temp\cc8fH946.ltrans22.ltrans.o
                0x00023e28                jsExceptionHere
 .text.jsAssertFail
                0x00023f10       0x78 C:\Users\apsyvert\AppData\Local\Temp\cc8fH946.ltrans22.ltrans.o
                0x00023f10                jsAssertFail
 .text.stringToFloatWithRadix.4269
                0x00023f88      0x2b8 C:\Users\apsyvert\AppData\Local\Temp\cc8fH946.ltrans22.ltrans.o
 .text.stringToFloat
                0x00024240       0x20 C:\Users\apsyvert\AppData\Local\Temp\cc8fH946.ltrans22.ltrans.o
                0x00024240                stringToFloat
 .text.itoch    0x00024260       0x2c C:\Users\apsyvert\AppData\Local\Temp\cc8fH946.ltrans22.ltrans.o
                0x00024260                itoch
 .text.itostr_extra
                0x0002428c       0xa4 C:\Users\apsyvert\AppData\Local\Temp\cc8fH946.ltrans22.ltrans.o
                0x0002428c                itostr_extra
 .text.ftoa_bounded_extra
                0x00024330      0x340 C:\Users\apsyvert\AppData\Local\Temp\cc8fH946.ltrans22.ltrans.o
                0x00024330                ftoa_bounded_extra
 .text.ftoa_bounded
                0x00024670       0x2c C:\Users\apsyvert\AppData\Local\Temp\cc8fH946.ltrans22.ltrans.o
                0x00024670                ftoa_bounded
 .text.wrapAround
                0x0002469c       0x60 C:\Users\apsyvert\AppData\Local\Temp\cc8fH946.ltrans22.ltrans.o
                0x0002469c                wrapAround
 .text.vcbprintf
                0x000246fc      0x474 C:\Users\apsyvert\AppData\Local\Temp\cc8fH946.ltrans22.ltrans.o
                0x000246fc                vcbprintf
 .text.cbprintf
                0x00024b70       0x2c C:\Users\apsyvert\AppData\Local\Temp\cc8fH946.ltrans22.ltrans.o
                0x00024b70                cbprintf
 .text.jsuGetFreeStack
                0x00024b9c       0x20 C:\Users\apsyvert\AppData\Local\Temp\cc8fH946.ltrans22.ltrans.o
                0x00024b9c                jsuGetFreeStack
 .text._jsvGetIntegerAndUnLock.6279.4211
                0x00024bbc       0x20 C:\Users\apsyvert\AppData\Local\Temp\cc8fH946.ltrans22.ltrans.o
 .text._jsvGetFloatAndUnLock.6232.4208
                0x00024bdc       0x28 C:\Users\apsyvert\AppData\Local\Temp\cc8fH946.ltrans22.ltrans.o
 .text.jsnCallFunction
                0x00024c04      0x394 C:\Users\apsyvert\AppData\Local\Temp\cc8fH946.ltrans22.ltrans.o
                0x00024c04                jsnCallFunction
 .text.sanity_pi.4189
                0x00024f98       0x20 C:\Users\apsyvert\AppData\Local\Temp\cc8fH946.ltrans22.ltrans.o
 .text.sanity_int_pass.4191
                0x00024fb8       0x20 C:\Users\apsyvert\AppData\Local\Temp\cc8fH946.ltrans22.ltrans.o
 .text.sanity_int_flt_int.4194
                0x00024fd8       0x44 C:\Users\apsyvert\AppData\Local\Temp\cc8fH946.ltrans22.ltrans.o
 *fill*         0x0002501c        0x4 
 .text.jsnSanityTest
                0x00025020      0x100 C:\Users\apsyvert\AppData\Local\Temp\cc8fH946.ltrans22.ltrans.o
                0x00025020                jsnSanityTest
 .text.jsvGetFirstChild.6333.4183
                0x00025120       0x18 C:\Users\apsyvert\AppData\Local\Temp\cc8fH946.ltrans22.ltrans.o
 .text.jsvGetNextSibling.6383.4180
                0x00025138       0x18 C:\Users\apsyvert\AppData\Local\Temp\cc8fH946.ltrans22.ltrans.o
 .text.jsvSetNextSibling.6386.4176
                0x00025150       0x1c C:\Users\apsyvert\AppData\Local\Temp\cc8fH946.ltrans22.ltrans.o
 .text.jsvSetPrevSibling.6390.4172
                0x0002516c       0x1c C:\Users\apsyvert\AppData\Local\Temp\cc8fH946.ltrans22.ltrans.o
 .text.jsvGetRefs.6394
                0x00025188       0x18 C:\Users\apsyvert\AppData\Local\Temp\cc8fH946.ltrans22.ltrans.o
                0x00025188                jsvGetRefs.6394
 .text.jsvNewFromEmptyString.6430
                0x000251a0       0x18 C:\Users\apsyvert\AppData\Local\Temp\cc8fH946.ltrans22.ltrans.o
                0x000251a0                jsvNewFromEmptyString.6430
 .text.jsvAsNumberAndUnLock.6439
                0x000251b8       0x20 C:\Users\apsyvert\AppData\Local\Temp\cc8fH946.ltrans22.ltrans.o
                0x000251b8                jsvAsNumberAndUnLock.6439
 .text._jsvGetIntegerAndUnLock.6424
                0x000251d8       0x20 C:\Users\apsyvert\AppData\Local\Temp\cc8fH946.ltrans22.ltrans.o
                0x000251d8                _jsvGetIntegerAndUnLock.6424
 .text._jsvGetBoolAndUnLock.6442
                0x000251f8       0x24 C:\Users\apsyvert\AppData\Local\Temp\cc8fH946.ltrans22.ltrans.o
                0x000251f8                _jsvGetBoolAndUnLock.6442
 .text.jsvStringIteratorGetIndex.6397
                0x0002521c       0x20 C:\Users\apsyvert\AppData\Local\Temp\cc8fH946.ltrans22.ltrans.o
                0x0002521c                jsvStringIteratorGetIndex.6397
 .text.jsvStringIteratorFree.6421
                0x0002523c       0x18 C:\Users\apsyvert\AppData\Local\Temp\cc8fH946.ltrans22.ltrans.o
                0x0002523c                jsvStringIteratorFree.6421
 .text.jsvObjectIteratorNew.6432
                0x00025254       0x7c C:\Users\apsyvert\AppData\Local\Temp\cc8fH946.ltrans22.ltrans.o
                0x00025254                jsvObjectIteratorNew.6432
 .text.jsvObjectIteratorGetKey.6427
                0x000252d0       0x28 C:\Users\apsyvert\AppData\Local\Temp\cc8fH946.ltrans22.ltrans.o
                0x000252d0                jsvObjectIteratorGetKey.6427
 .text.jsvObjectIteratorGetValue.6436
                0x000252f8       0x28 C:\Users\apsyvert\AppData\Local\Temp\cc8fH946.ltrans22.ltrans.o
                0x000252f8                jsvObjectIteratorGetValue.6436
 .text.jsvObjectIteratorHasValue.6408
                0x00025320       0x24 C:\Users\apsyvert\AppData\Local\Temp\cc8fH946.ltrans22.ltrans.o
                0x00025320                jsvObjectIteratorHasValue.6408
 .text.jsvObjectIteratorNext.6415
                0x00025344       0x48 C:\Users\apsyvert\AppData\Local\Temp\cc8fH946.ltrans22.ltrans.o
                0x00025344                jsvObjectIteratorNext.6415
 .text.jsvObjectIteratorFree.6418
                0x0002538c       0x18 C:\Users\apsyvert\AppData\Local\Temp\cc8fH946.ltrans22.ltrans.o
                0x0002538c                jsvObjectIteratorFree.6418
 .text.jspDebuggerLoopIfCtrlC
                0x000253a4       0x2c C:\Users\apsyvert\AppData\Local\Temp\cc8fH946.ltrans22.ltrans.o
                0x000253a4                jspDebuggerLoopIfCtrlC
 .text.jspIsInterrupted
                0x000253d0       0x28 C:\Users\apsyvert\AppData\Local\Temp\cc8fH946.ltrans22.ltrans.o
                0x000253d0                jspIsInterrupted
 .text.jspSetInterrupted
                0x000253f8       0x40 C:\Users\apsyvert\AppData\Local\Temp\cc8fH946.ltrans22.ltrans.o
                0x000253f8                jspSetInterrupted
 .text.jspSetError
                0x00025438       0x48 C:\Users\apsyvert\AppData\Local\Temp\cc8fH946.ltrans22.ltrans.o
                0x00025438                jspSetError
 .text.jspHasError
                0x00025480       0x28 C:\Users\apsyvert\AppData\Local\Temp\cc8fH946.ltrans22.ltrans.o
                0x00025480                jspHasError
 .text.jspReplaceWith
                0x000254a8       0xf0 C:\Users\apsyvert\AppData\Local\Temp\cc8fH946.ltrans22.ltrans.o
                0x000254a8                jspReplaceWith
 .text.jspeiInit
                0x00025598       0x30 C:\Users\apsyvert\AppData\Local\Temp\cc8fH946.ltrans22.ltrans.o
                0x00025598                jspeiInit
 .text.jspeiKill
                0x000255c8       0x2c C:\Users\apsyvert\AppData\Local\Temp\cc8fH946.ltrans22.ltrans.o
                0x000255c8                jspeiKill
 .text.jspeiAddScope
                0x000255f4       0x50 C:\Users\apsyvert\AppData\Local\Temp\cc8fH946.ltrans22.ltrans.o
                0x000255f4                jspeiAddScope
 .text.jspeiRemoveScope
                0x00025644       0x44 C:\Users\apsyvert\AppData\Local\Temp\cc8fH946.ltrans22.ltrans.o
                0x00025644                jspeiRemoveScope
 .text.jspeiFindInScopes
                0x00025688       0x5c C:\Users\apsyvert\AppData\Local\Temp\cc8fH946.ltrans22.ltrans.o
                0x00025688                jspeiFindInScopes
 .text.jspeiFindOnTop
                0x000256e4       0x54 C:\Users\apsyvert\AppData\Local\Temp\cc8fH946.ltrans22.ltrans.o
                0x000256e4                jspeiFindOnTop
 .text.jspeiFindNameOnTop
                0x00025738       0x54 C:\Users\apsyvert\AppData\Local\Temp\cc8fH946.ltrans22.ltrans.o
                0x00025738                jspeiFindNameOnTop
 .text.jspeiFindChildFromStringInParents
                0x0002578c      0x128 C:\Users\apsyvert\AppData\Local\Temp\cc8fH946.ltrans22.ltrans.o
                0x0002578c                jspeiFindChildFromStringInParents
 .text.jspeiGetScopesAsVar
                0x000258b4       0x90 C:\Users\apsyvert\AppData\Local\Temp\cc8fH946.ltrans22.ltrans.o
                0x000258b4                jspeiGetScopesAsVar
 .text.jspeiLoadScopesFromVar
                0x00025944       0x94 C:\Users\apsyvert\AppData\Local\Temp\cc8fH946.ltrans22.ltrans.o
                0x00025944                jspeiLoadScopesFromVar
 .text.jsvIterateCallbackCount
                0x000259d8       0x28 C:\Users\apsyvert\AppData\Local\Temp\cc8fH946.ltrans23.ltrans.o
                0x000259d8                jsvIterateCallbackCount
 .text.jsvIterateCallbackToBytesCb.5621.4264
                0x00025a00       0x40 C:\Users\apsyvert\AppData\Local\Temp\cc8fH946.ltrans23.ltrans.o
 .text.jsvIterateCallbackToBytes
                0x00025a40       0x34 C:\Users\apsyvert\AppData\Local\Temp\cc8fH946.ltrans23.ltrans.o
                0x00025a40                jsvIterateCallbackToBytes
 .text.jsvStringIteratorNew
                0x00025a74      0x148 C:\Users\apsyvert\AppData\Local\Temp\cc8fH946.ltrans23.ltrans.o
                0x00025a74                jsvStringIteratorNew
 .text.jsvStringIteratorNext
                0x00025bbc       0x14 C:\Users\apsyvert\AppData\Local\Temp\cc8fH946.ltrans23.ltrans.o
                0x00025bbc                jsvStringIteratorNext
 .text.jsvStringIteratorGotoEnd
                0x00025bd0       0xa0 C:\Users\apsyvert\AppData\Local\Temp\cc8fH946.ltrans23.ltrans.o
                0x00025bd0                jsvStringIteratorGotoEnd
 .text.jsvStringIteratorAppend
                0x00025c70      0x128 C:\Users\apsyvert\AppData\Local\Temp\cc8fH946.ltrans23.ltrans.o
                0x00025c70                jsvStringIteratorAppend
 .text.jsvArrayBufferIteratorNew
                0x00025d98       0xd4 C:\Users\apsyvert\AppData\Local\Temp\cc8fH946.ltrans23.ltrans.o
                0x00025d98                jsvArrayBufferIteratorNew
 .text.jsvArrayBufferIteratorGetValueData.5704.4235
                0x00025e6c       0x84 C:\Users\apsyvert\AppData\Local\Temp\cc8fH946.ltrans23.ltrans.o
 .text.jsvArrayBufferIteratorDataToInt.5708.4231
                0x00025ef0       0x84 C:\Users\apsyvert\AppData\Local\Temp\cc8fH946.ltrans23.ltrans.o
 .text.jsvArrayBufferIteratorDataToFloat.5712.4227
                0x00025f74       0x70 C:\Users\apsyvert\AppData\Local\Temp\cc8fH946.ltrans23.ltrans.o
 .text.jsvArrayBufferIteratorGetValue
                0x00025fe4       0x84 C:\Users\apsyvert\AppData\Local\Temp\cc8fH946.ltrans23.ltrans.o
                0x00025fe4                jsvArrayBufferIteratorGetValue
 .text.jsvArrayBufferIteratorGetValueAndRewind.4221
                0x00026068       0x48 C:\Users\apsyvert\AppData\Local\Temp\cc8fH946.ltrans23.ltrans.o
 .text.jsvArrayBufferIteratorGetIntegerValue
                0x000260b0       0x60 C:\Users\apsyvert\AppData\Local\Temp\cc8fH946.ltrans23.ltrans.o
                0x000260b0                jsvArrayBufferIteratorGetIntegerValue
 .text.jsvArrayBufferIteratorGetFloatValue
                0x00026110       0x68 C:\Users\apsyvert\AppData\Local\Temp\cc8fH946.ltrans23.ltrans.o
                0x00026110                jsvArrayBufferIteratorGetFloatValue
 .text.jsvArrayBufferIteratorIntToData.5728.4209
                0x00026178       0xac C:\Users\apsyvert\AppData\Local\Temp\cc8fH946.ltrans23.ltrans.o
 .text.jsvArrayBufferIteratorFloatToData.5734.4203
                0x00026224       0x50 C:\Users\apsyvert\AppData\Local\Temp\cc8fH946.ltrans23.ltrans.o
 .text.jsvArrayBufferIteratorSetIntegerValue
                0x00026274       0xcc C:\Users\apsyvert\AppData\Local\Temp\cc8fH946.ltrans23.ltrans.o
                0x00026274                jsvArrayBufferIteratorSetIntegerValue
 .text.jsvArrayBufferIteratorSetValue
                0x00026340       0xd4 C:\Users\apsyvert\AppData\Local\Temp\cc8fH946.ltrans23.ltrans.o
                0x00026340                jsvArrayBufferIteratorSetValue
 .text.jsvArrayBufferIteratorSetByteValue
                0x00026414       0x40 C:\Users\apsyvert\AppData\Local\Temp\cc8fH946.ltrans23.ltrans.o
                0x00026414                jsvArrayBufferIteratorSetByteValue
 .text.jsvArrayBufferIteratorSetValueAndRewind.4187
                0x00026454       0x48 C:\Users\apsyvert\AppData\Local\Temp\cc8fH946.ltrans23.ltrans.o
 .text.jsvArrayBufferIteratorGetIndex
                0x0002649c       0x1c C:\Users\apsyvert\AppData\Local\Temp\cc8fH946.ltrans23.ltrans.o
                0x0002649c                jsvArrayBufferIteratorGetIndex
 .text.jsvArrayBufferIteratorHasElement
                0x000264b8       0x4c C:\Users\apsyvert\AppData\Local\Temp\cc8fH946.ltrans23.ltrans.o
                0x000264b8                jsvArrayBufferIteratorHasElement
 .text.jsvArrayBufferIteratorNext
                0x00026504       0x64 C:\Users\apsyvert\AppData\Local\Temp\cc8fH946.ltrans23.ltrans.o
                0x00026504                jsvArrayBufferIteratorNext
 .text.jsvArrayBufferIteratorFree
                0x00026568       0x20 C:\Users\apsyvert\AppData\Local\Temp\cc8fH946.ltrans23.ltrans.o
                0x00026568                jsvArrayBufferIteratorFree
 .text.jsvIteratorNew
                0x00026588       0xa0 C:\Users\apsyvert\AppData\Local\Temp\cc8fH946.ltrans23.ltrans.o
                0x00026588                jsvIteratorNew
 .text.jsvIteratorGetKey
                0x00026628       0x80 C:\Users\apsyvert\AppData\Local\Temp\cc8fH946.ltrans23.ltrans.o
                0x00026628                jsvIteratorGetKey
 .text.jsvIteratorGetValue
                0x000266a8       0x74 C:\Users\apsyvert\AppData\Local\Temp\cc8fH946.ltrans23.ltrans.o
                0x000266a8                jsvIteratorGetValue
 .text.jsvIteratorGetIntegerValue
                0x0002671c       0x88 C:\Users\apsyvert\AppData\Local\Temp\cc8fH946.ltrans23.ltrans.o
                0x0002671c                jsvIteratorGetIntegerValue
 .text.jsvIteratorGetFloatValue
                0x000267a4       0x80 C:\Users\apsyvert\AppData\Local\Temp\cc8fH946.ltrans23.ltrans.o
                0x000267a4                jsvIteratorGetFloatValue
 .text.jsvIteratorSetValue
                0x00026824       0x80 C:\Users\apsyvert\AppData\Local\Temp\cc8fH946.ltrans23.ltrans.o
                0x00026824                jsvIteratorSetValue
 .text.jsvIteratorHasElement
                0x000268a4       0x64 C:\Users\apsyvert\AppData\Local\Temp\cc8fH946.ltrans23.ltrans.o
                0x000268a4                jsvIteratorHasElement
 .text.jsvIteratorNext
                0x00026908       0x58 C:\Users\apsyvert\AppData\Local\Temp\cc8fH946.ltrans23.ltrans.o
                0x00026908                jsvIteratorNext
 .text.jsvIteratorFree
                0x00026960       0x58 C:\Users\apsyvert\AppData\Local\Temp\cc8fH946.ltrans23.ltrans.o
                0x00026960                jsvIteratorFree
 .text.jsvIteratorClone
                0x000269b8       0xb0 C:\Users\apsyvert\AppData\Local\Temp\cc8fH946.ltrans23.ltrans.o
                0x000269b8                jsvIteratorClone
 .text.isWhitespace.5940
                0x00026a68       0x4c C:\Users\apsyvert\AppData\Local\Temp\cc8fH946.ltrans23.ltrans.o
                0x00026a68                isWhitespace.5940
 .text.itostr.6083
                0x00026ab4       0x20 C:\Users\apsyvert\AppData\Local\Temp\cc8fH946.ltrans23.ltrans.o
                0x00026ab4                itostr.6083
 .text.jsvNewFromEmptyString.6018
                0x00026ad4       0x18 C:\Users\apsyvert\AppData\Local\Temp\cc8fH946.ltrans23.ltrans.o
                0x00026ad4                jsvNewFromEmptyString.6018
 .text.jsvStringIteratorGetChar.5952
                0x00026aec       0x2c C:\Users\apsyvert\AppData\Local\Temp\cc8fH946.ltrans23.ltrans.o
                0x00026aec                jsvStringIteratorGetChar.5952
 .text.jsvStringIteratorHasChar.6008
                0x00026b18       0x28 C:\Users\apsyvert\AppData\Local\Temp\cc8fH946.ltrans23.ltrans.o
                0x00026b18                jsvStringIteratorHasChar.6008
 .text.jsvStringIteratorFree.6015
                0x00026b40       0x18 C:\Users\apsyvert\AppData\Local\Temp\cc8fH946.ltrans23.ltrans.o
                0x00026b40                jsvStringIteratorFree.6015
 .text.escapeCharacter
                0x00026b58      0x108 C:\Users\apsyvert\AppData\Local\Temp\cc8fH946.ltrans23.ltrans.o
                0x00026b58                escapeCharacter
 .text.getRadix.6026
                0x00026c60      0x144 C:\Users\apsyvert\AppData\Local\Temp\cc8fH946.ltrans23.ltrans.o
                0x00026c60                getRadix.6026
 .text.chtod    0x00026da4       0x50 C:\Users\apsyvert\AppData\Local\Temp\cc8fH946.ltrans23.ltrans.o
                0x00026da4                chtod
 .text.stringToIntWithRadix
                0x00026df4      0x114 C:\Users\apsyvert\AppData\Local\Temp\cc8fH946.ltrans23.ltrans.o
                0x00026df4                stringToIntWithRadix
 .text.stringToInt
                0x00026f08       0x20 C:\Users\apsyvert\AppData\Local\Temp\cc8fH946.ltrans23.ltrans.o
                0x00026f08                stringToInt
 .text.jsError  0x00026f28       0x44 C:\Users\apsyvert\AppData\Local\Temp\cc8fH946.ltrans23.ltrans.o
                0x00026f28                jsError
 .text.jsvTraceLockInfo.4229
                0x00026f6c       0x38 C:\Users\apsyvert\AppData\Local\Temp\cc8fH946.ltrans24.ltrans.o
 .text._jsvTraceGetLowestLevel.4225
                0x00026fa4      0x104 C:\Users\apsyvert\AppData\Local\Temp\cc8fH946.ltrans24.ltrans.o
 .text._jsvTrace.4219
                0x000270a8      0x424 C:\Users\apsyvert\AppData\Local\Temp\cc8fH946.ltrans24.ltrans.o
 .text.jsvTrace
                0x000274cc       0x28 C:\Users\apsyvert\AppData\Local\Temp\cc8fH946.ltrans24.ltrans.o
                0x000274cc                jsvTrace
 .text.jsvGarbageCollectMarkUsed.4908.4212
                0x000274f4       0xdc C:\Users\apsyvert\AppData\Local\Temp\cc8fH946.ltrans24.ltrans.o
 .text.jsvGarbageCollect
                0x000275d0      0x384 C:\Users\apsyvert\AppData\Local\Temp\cc8fH946.ltrans24.ltrans.o
                0x000275d0                jsvGarbageCollect
 .text.jsvStringTrimRight
                0x00027954       0xd0 C:\Users\apsyvert\AppData\Local\Temp\cc8fH946.ltrans24.ltrans.o
                0x00027954                jsvStringTrimRight
 .text.jsvIsInternalFunctionKey.4201
                0x00027a24       0x3c C:\Users\apsyvert\AppData\Local\Temp\cc8fH946.ltrans24.ltrans.o
 .text.jsvIsInternalObjectKey
                0x00027a60       0x54 C:\Users\apsyvert\AppData\Local\Temp\cc8fH946.ltrans24.ltrans.o
                0x00027a60                jsvIsInternalObjectKey
 .text.jsvGetInternalFunctionCheckerFor
                0x00027ab4       0x3c C:\Users\apsyvert\AppData\Local\Temp\cc8fH946.ltrans24.ltrans.o
                0x00027ab4                jsvGetInternalFunctionCheckerFor
 .text.jsvReadConfigObject
                0x00027af0      0x258 C:\Users\apsyvert\AppData\Local\Temp\cc8fH946.ltrans24.ltrans.o
                0x00027af0                jsvReadConfigObject
 .text.jsvNewTypedArray
                0x00027d48       0x40 C:\Users\apsyvert\AppData\Local\Temp\cc8fH946.ltrans24.ltrans.o
                0x00027d48                jsvNewTypedArray
 .text.jsvGetFirstChild.5524.4170
                0x00027d88       0x18 C:\Users\apsyvert\AppData\Local\Temp\cc8fH946.ltrans24.ltrans.o
 .text.jsvGetFirstChildSigned.5574
                0x00027da0       0x1c C:\Users\apsyvert\AppData\Local\Temp\cc8fH946.ltrans24.ltrans.o
                0x00027da0                jsvGetFirstChildSigned.5574
 .text.jsvGetLastChild.5579
                0x00027dbc       0x18 C:\Users\apsyvert\AppData\Local\Temp\cc8fH946.ltrans24.ltrans.o
                0x00027dbc                jsvGetLastChild.5579
 .text.jsvGetNextSibling.5582.4159
                0x00027dd4       0x18 C:\Users\apsyvert\AppData\Local\Temp\cc8fH946.ltrans24.ltrans.o
 .text.jsvSetLastChild.5585
                0x00027dec       0x1c C:\Users\apsyvert\AppData\Local\Temp\cc8fH946.ltrans24.ltrans.o
                0x00027dec                jsvSetLastChild.5585
 .text.jsvGetMaxCharactersInVar.5667
                0x00027e08       0x58 C:\Users\apsyvert\AppData\Local\Temp\cc8fH946.ltrans24.ltrans.o
                0x00027e08                jsvGetMaxCharactersInVar.5667
 .text.jsvGetCharactersInVar.5634
                0x00027e60       0x8c C:\Users\apsyvert\AppData\Local\Temp\cc8fH946.ltrans24.ltrans.o
                0x00027e60                jsvGetCharactersInVar.5634
 .text.jsvSetCharactersInVar.5657
                0x00027eec      0x120 C:\Users\apsyvert\AppData\Local\Temp\cc8fH946.ltrans24.ltrans.o
                0x00027eec                jsvSetCharactersInVar.5657
 .text._jsvGetIntegerAndUnLock.5628
                0x0002800c       0x20 C:\Users\apsyvert\AppData\Local\Temp\cc8fH946.ltrans24.ltrans.o
                0x0002800c                _jsvGetIntegerAndUnLock.5628
 .text._jsvGetFloatAndUnLock.5670
                0x0002802c       0x28 C:\Users\apsyvert\AppData\Local\Temp\cc8fH946.ltrans24.ltrans.o
                0x0002802c                _jsvGetFloatAndUnLock.5670
 .text.jsvStringIteratorClone.5637
                0x00028054       0x40 C:\Users\apsyvert\AppData\Local\Temp\cc8fH946.ltrans24.ltrans.o
                0x00028054                jsvStringIteratorClone.5637
 .text.jsvStringIteratorGetChar.5589
                0x00028094       0x2c C:\Users\apsyvert\AppData\Local\Temp\cc8fH946.ltrans24.ltrans.o
                0x00028094                jsvStringIteratorGetChar.5589
 .text.jsvStringIteratorHasChar.5600
                0x000280c0       0x28 C:\Users\apsyvert\AppData\Local\Temp\cc8fH946.ltrans24.ltrans.o
                0x000280c0                jsvStringIteratorHasChar.5600
 .text.jsvStringIteratorSetChar.5604
                0x000280e8       0x2c C:\Users\apsyvert\AppData\Local\Temp\cc8fH946.ltrans24.ltrans.o
                0x000280e8                jsvStringIteratorSetChar.5604
 .text.jsvStringIteratorGetIndex.5608
                0x00028114       0x20 C:\Users\apsyvert\AppData\Local\Temp\cc8fH946.ltrans24.ltrans.o
                0x00028114                jsvStringIteratorGetIndex.5608
 .text.jsvStringIteratorNextInline.5661
                0x00028134       0xc0 C:\Users\apsyvert\AppData\Local\Temp\cc8fH946.ltrans24.ltrans.o
                0x00028134                jsvStringIteratorNextInline.5661
 .text.jsvStringIteratorFree.5625
                0x000281f4       0x18 C:\Users\apsyvert\AppData\Local\Temp\cc8fH946.ltrans24.ltrans.o
                0x000281f4                jsvStringIteratorFree.5625
 .text.jsvObjectIteratorNew.5673
                0x0002820c       0x7c C:\Users\apsyvert\AppData\Local\Temp\cc8fH946.ltrans24.ltrans.o
                0x0002820c                jsvObjectIteratorNew.5673
 .text.jsvObjectIteratorClone.5654
                0x00028288       0x28 C:\Users\apsyvert\AppData\Local\Temp\cc8fH946.ltrans24.ltrans.o
                0x00028288                jsvObjectIteratorClone.5654
 .text.jsvObjectIteratorGetKey.5651
                0x000282b0       0x28 C:\Users\apsyvert\AppData\Local\Temp\cc8fH946.ltrans24.ltrans.o
                0x000282b0                jsvObjectIteratorGetKey.5651
 .text.jsvObjectIteratorGetValue.5677
                0x000282d8       0x28 C:\Users\apsyvert\AppData\Local\Temp\cc8fH946.ltrans24.ltrans.o
                0x000282d8                jsvObjectIteratorGetValue.5677
 .text.jsvObjectIteratorSetValue.5680
                0x00028300       0x24 C:\Users\apsyvert\AppData\Local\Temp\cc8fH946.ltrans24.ltrans.o
                0x00028300                jsvObjectIteratorSetValue.5680
 .text.jsvObjectIteratorHasValue.5611
                0x00028324       0x24 C:\Users\apsyvert\AppData\Local\Temp\cc8fH946.ltrans24.ltrans.o
                0x00028324                jsvObjectIteratorHasValue.5611
 .text.jsvObjectIteratorNext.5664
                0x00028348       0x48 C:\Users\apsyvert\AppData\Local\Temp\cc8fH946.ltrans24.ltrans.o
                0x00028348                jsvObjectIteratorNext.5664
 .text.jsvObjectIteratorFree.5631
                0x00028390       0x18 C:\Users\apsyvert\AppData\Local\Temp\cc8fH946.ltrans24.ltrans.o
                0x00028390                jsvObjectIteratorFree.5631
 .text.jsvArrayBufferIteratorClone.5640
                0x000283a8       0x5c C:\Users\apsyvert\AppData\Local\Temp\cc8fH946.ltrans24.ltrans.o
                0x000283a8                jsvArrayBufferIteratorClone.5640
 .text.jsvIterateCallback
                0x00028404      0x244 C:\Users\apsyvert\AppData\Local\Temp\cc8fH946.ltrans24.ltrans.o
                0x00028404                jsvIterateCallback
 .text.jsvIterateCallbackCountCb.5617
                0x00028648       0x24 C:\Users\apsyvert\AppData\Local\Temp\cc8fH946.ltrans24.ltrans.o
                0x00028648                jsvIterateCallbackCountCb.5617
 .text.jsvGetChildren.4154
                0x0002866c       0x48 C:\Users\apsyvert\AppData\Local\Temp\cc8fH946.ltrans25.ltrans.o
 .text.jsvGetArrayLength
                0x000286b4       0x44 C:\Users\apsyvert\AppData\Local\Temp\cc8fH946.ltrans25.ltrans.o
                0x000286b4                jsvGetArrayLength
 .text.jsvSetArrayLength
                0x000286f8       0x48 C:\Users\apsyvert\AppData\Local\Temp\cc8fH946.ltrans25.ltrans.o
                0x000286f8                jsvSetArrayLength
 .text.jsvGetLength
                0x00028740       0x78 C:\Users\apsyvert\AppData\Local\Temp\cc8fH946.ltrans25.ltrans.o
                0x00028740                jsvGetLength
 .text._jsvCountJsVarsUsedRecursive.4887.4136
                0x000287b8      0x174 C:\Users\apsyvert\AppData\Local\Temp\cc8fH946.ltrans25.ltrans.o
 .text.jsvCountJsVarsUsed
                0x0002892c       0x24 C:\Users\apsyvert\AppData\Local\Temp\cc8fH946.ltrans25.ltrans.o
                0x0002892c                jsvCountJsVarsUsed
 .text.jsvGetArrayItem
                0x00028950      0x148 C:\Users\apsyvert\AppData\Local\Temp\cc8fH946.ltrans25.ltrans.o
                0x00028950                jsvGetArrayItem
 .text.jsvGetArrayItems
                0x00028a98       0x84 C:\Users\apsyvert\AppData\Local\Temp\cc8fH946.ltrans25.ltrans.o
                0x00028a98                jsvGetArrayItems
 .text.jsvGetArrayIndexOf
                0x00028b1c       0xd8 C:\Users\apsyvert\AppData\Local\Temp\cc8fH946.ltrans25.ltrans.o
                0x00028b1c                jsvGetArrayIndexOf
 .text.jsvArrayAddToEnd
                0x00028bf4       0xa4 C:\Users\apsyvert\AppData\Local\Temp\cc8fH946.ltrans25.ltrans.o
                0x00028bf4                jsvArrayAddToEnd
 .text.jsvArrayPush
                0x00028c98       0x7c C:\Users\apsyvert\AppData\Local\Temp\cc8fH946.ltrans25.ltrans.o
                0x00028c98                jsvArrayPush
 .text.jsvArrayPushAndUnLock
                0x00028d14       0x24 C:\Users\apsyvert\AppData\Local\Temp\cc8fH946.ltrans25.ltrans.o
                0x00028d14                jsvArrayPushAndUnLock
 .text.jsvArrayPop
                0x00028d38       0xe4 C:\Users\apsyvert\AppData\Local\Temp\cc8fH946.ltrans25.ltrans.o
                0x00028d38                jsvArrayPop
 .text.jsvArrayPopFirst
                0x00028e1c       0xc0 C:\Users\apsyvert\AppData\Local\Temp\cc8fH946.ltrans25.ltrans.o
                0x00028e1c                jsvArrayPopFirst
 .text.jsvArrayAddUnique
                0x00028edc       0x34 C:\Users\apsyvert\AppData\Local\Temp\cc8fH946.ltrans25.ltrans.o
                0x00028edc                jsvArrayAddUnique
 .text.jsvArrayJoin
                0x00028f10      0x138 C:\Users\apsyvert\AppData\Local\Temp\cc8fH946.ltrans25.ltrans.o
                0x00028f10                jsvArrayJoin
 .text.jsvArrayInsertBefore
                0x00029048       0xd8 C:\Users\apsyvert\AppData\Local\Temp\cc8fH946.ltrans25.ltrans.o
                0x00029048                jsvArrayInsertBefore
 .text.jsvMathsOpSkipNames
                0x00029120       0x54 C:\Users\apsyvert\AppData\Local\Temp\cc8fH946.ltrans25.ltrans.o
                0x00029120                jsvMathsOpSkipNames
 .text.jsvMathsOpError.4077
                0x00029174       0x34 C:\Users\apsyvert\AppData\Local\Temp\cc8fH946.ltrans25.ltrans.o
 .text.jsvMathsOpTypeEqual.4072
                0x000291a8      0x108 C:\Users\apsyvert\AppData\Local\Temp\cc8fH946.ltrans25.ltrans.o
 .text.jsvMathsOp
                0x000292b0      0x9fc C:\Users\apsyvert\AppData\Local\Temp\cc8fH946.ltrans25.ltrans.o
                0x000292b0                jsvMathsOp
 .text.jsvNegateAndUnLock
                0x00029cac       0x30 C:\Users\apsyvert\AppData\Local\Temp\cc8fH946.ltrans25.ltrans.o
                0x00029cac                jsvNegateAndUnLock
 .text.jsvGetPathTo
                0x00029cdc      0x118 C:\Users\apsyvert\AppData\Local\Temp\cc8fH946.ltrans25.ltrans.o
                0x00029cdc                jsvGetPathTo
 .text.jsvSkipOneName
                0x00029df4       0xf8 C:\Users\apsyvert\AppData\Local\Temp\cc8fH946.ltrans26.ltrans.o
                0x00029df4                jsvSkipOneName
 .text.jsvSkipToLastName
                0x00029eec       0x80 C:\Users\apsyvert\AppData\Local\Temp\cc8fH946.ltrans26.ltrans.o
                0x00029eec                jsvSkipToLastName
 .text.jsvSkipNameAndUnLock
                0x00029f6c       0x20 C:\Users\apsyvert\AppData\Local\Temp\cc8fH946.ltrans26.ltrans.o
                0x00029f6c                jsvSkipNameAndUnLock
 .text.jsvSkipOneNameAndUnLock
                0x00029f8c       0x20 C:\Users\apsyvert\AppData\Local\Temp\cc8fH946.ltrans26.ltrans.o
                0x00029f8c                jsvSkipOneNameAndUnLock
 .text.jsvIsStringEqualOrStartsWith
                0x00029fac       0xd0 C:\Users\apsyvert\AppData\Local\Temp\cc8fH946.ltrans26.ltrans.o
                0x00029fac                jsvIsStringEqualOrStartsWith
 .text.jsvIsStringEqual
                0x0002a07c       0x20 C:\Users\apsyvert\AppData\Local\Temp\cc8fH946.ltrans26.ltrans.o
                0x0002a07c                jsvIsStringEqual
 .text.jsvCompareString
                0x0002a09c       0xbc C:\Users\apsyvert\AppData\Local\Temp\cc8fH946.ltrans26.ltrans.o
                0x0002a09c                jsvCompareString
 .text.jsvGetCommonCharacters
                0x0002a158       0xbc C:\Users\apsyvert\AppData\Local\Temp\cc8fH946.ltrans26.ltrans.o
                0x0002a158                jsvGetCommonCharacters
 .text.jsvCompareInteger.4133
                0x0002a214       0x64 C:\Users\apsyvert\AppData\Local\Temp\cc8fH946.ltrans26.ltrans.o
 .text.jsvCopyNameOnly
                0x0002a278      0x240 C:\Users\apsyvert\AppData\Local\Temp\cc8fH946.ltrans26.ltrans.o
                0x0002a278                jsvCopyNameOnly
 .text.jsvCopy  0x0002a4b8      0x254 C:\Users\apsyvert\AppData\Local\Temp\cc8fH946.ltrans26.ltrans.o
                0x0002a4b8                jsvCopy
 .text.jsvAddName
                0x0002a70c      0x1c8 C:\Users\apsyvert\AppData\Local\Temp\cc8fH946.ltrans26.ltrans.o
                0x0002a70c                jsvAddName
 .text.jsvAddNamedChild
                0x0002a8d4       0x3c C:\Users\apsyvert\AppData\Local\Temp\cc8fH946.ltrans26.ltrans.o
                0x0002a8d4                jsvAddNamedChild
 .text.jsvSetNamedChild
                0x0002a910       0x34 C:\Users\apsyvert\AppData\Local\Temp\cc8fH946.ltrans26.ltrans.o
                0x0002a910                jsvSetNamedChild
 .text.jsvSetValueOfName
                0x0002a944      0x1f0 C:\Users\apsyvert\AppData\Local\Temp\cc8fH946.ltrans26.ltrans.o
                0x0002a944                jsvSetValueOfName
 .text.jsvFindChildFromString
                0x0002ab34      0x108 C:\Users\apsyvert\AppData\Local\Temp\cc8fH946.ltrans26.ltrans.o
                0x0002ab34                jsvFindChildFromString
 .text.jsvCreateNewChild
                0x0002ac3c       0xa4 C:\Users\apsyvert\AppData\Local\Temp\cc8fH946.ltrans26.ltrans.o
                0x0002ac3c                jsvCreateNewChild
 .text.jsvAsName.4094
                0x0002ace0       0x54 C:\Users\apsyvert\AppData\Local\Temp\cc8fH946.ltrans26.ltrans.o
 .text.jsvFindChildFromVar
                0x0002ad34       0x78 C:\Users\apsyvert\AppData\Local\Temp\cc8fH946.ltrans26.ltrans.o
                0x0002ad34                jsvFindChildFromVar
 .text.jsvRemoveChild
                0x0002adac      0x180 C:\Users\apsyvert\AppData\Local\Temp\cc8fH946.ltrans26.ltrans.o
                0x0002adac                jsvRemoveChild
 .text.jsvRemoveAllChildren
                0x0002af2c       0x60 C:\Users\apsyvert\AppData\Local\Temp\cc8fH946.ltrans26.ltrans.o
                0x0002af2c                jsvRemoveAllChildren
 .text.jsvRemoveNamedChild
                0x0002af8c       0x30 C:\Users\apsyvert\AppData\Local\Temp\cc8fH946.ltrans26.ltrans.o
                0x0002af8c                jsvRemoveNamedChild
 .text.jsvIsChild
                0x0002afbc       0xb0 C:\Users\apsyvert\AppData\Local\Temp\cc8fH946.ltrans26.ltrans.o
                0x0002afbc                jsvIsChild
 .text.jsvObjectGetChild
                0x0002b06c       0x9c C:\Users\apsyvert\AppData\Local\Temp\cc8fH946.ltrans26.ltrans.o
                0x0002b06c                jsvObjectGetChild
 .text.jsvObjectSetChild
                0x0002b108       0x60 C:\Users\apsyvert\AppData\Local\Temp\cc8fH946.ltrans26.ltrans.o
                0x0002b108                jsvObjectSetChild
 .text.jsvObjectSetChildAndUnLock
                0x0002b168       0x24 C:\Users\apsyvert\AppData\Local\Temp\cc8fH946.ltrans26.ltrans.o
                0x0002b168                jsvObjectSetChildAndUnLock
 .text.jsvAsString
                0x0002b18c      0x1d4 C:\Users\apsyvert\AppData\Local\Temp\cc8fH946.ltrans27.ltrans.o
                0x0002b18c                jsvAsString
 .text.jsvAsFlatString
                0x0002b360       0xbc C:\Users\apsyvert\AppData\Local\Temp\cc8fH946.ltrans27.ltrans.o
                0x0002b360                jsvAsFlatString
 .text.jsvAsArrayIndex
                0x0002b41c       0xa0 C:\Users\apsyvert\AppData\Local\Temp\cc8fH946.ltrans27.ltrans.o
                0x0002b41c                jsvAsArrayIndex
 .text.jsvAsArrayIndexAndUnLock
                0x0002b4bc       0x20 C:\Users\apsyvert\AppData\Local\Temp\cc8fH946.ltrans27.ltrans.o
                0x0002b4bc                jsvAsArrayIndexAndUnLock
 .text.jsvIsEmptyString
                0x0002b4dc       0x38 C:\Users\apsyvert\AppData\Local\Temp\cc8fH946.ltrans27.ltrans.o
                0x0002b4dc                jsvIsEmptyString
 .text.jsvGetStringLength
                0x0002b514       0x78 C:\Users\apsyvert\AppData\Local\Temp\cc8fH946.ltrans27.ltrans.o
                0x0002b514                jsvGetStringLength
 .text.jsvGetFlatStringBlocks
                0x0002b58c       0x40 C:\Users\apsyvert\AppData\Local\Temp\cc8fH946.ltrans27.ltrans.o
                0x0002b58c                jsvGetFlatStringBlocks
 .text.jsvGetFlatStringPointer
                0x0002b5cc       0x50 C:\Users\apsyvert\AppData\Local\Temp\cc8fH946.ltrans27.ltrans.o
                0x0002b5cc                jsvGetFlatStringPointer
 .text.jsvGetLinesInString
                0x0002b61c       0x60 C:\Users\apsyvert\AppData\Local\Temp\cc8fH946.ltrans27.ltrans.o
                0x0002b61c                jsvGetLinesInString
 .text.jsvGetCharsOnLine
                0x0002b67c       0x80 C:\Users\apsyvert\AppData\Local\Temp\cc8fH946.ltrans27.ltrans.o
                0x0002b67c                jsvGetCharsOnLine
 .text.jsvGetLineAndCol
                0x0002b6fc       0xd0 C:\Users\apsyvert\AppData\Local\Temp\cc8fH946.ltrans27.ltrans.o
                0x0002b6fc                jsvGetLineAndCol
 .text.jsvGetIndexFromLineAndCol
                0x0002b7cc       0xb8 C:\Users\apsyvert\AppData\Local\Temp\cc8fH946.ltrans27.ltrans.o
                0x0002b7cc                jsvGetIndexFromLineAndCol
 .text.jsvAppendString
                0x0002b884       0x78 C:\Users\apsyvert\AppData\Local\Temp\cc8fH946.ltrans27.ltrans.o
                0x0002b884                jsvAppendString
 .text.jsvAppendStringBuf
                0x0002b8fc       0x7c C:\Users\apsyvert\AppData\Local\Temp\cc8fH946.ltrans27.ltrans.o
                0x0002b8fc                jsvAppendStringBuf
 .text.jsvStringIteratorPrintfCallback
                0x0002b978       0x2c C:\Users\apsyvert\AppData\Local\Temp\cc8fH946.ltrans27.ltrans.o
                0x0002b978                jsvStringIteratorPrintfCallback
 .text.jsvAppendPrintf
                0x0002b9a4       0x54 C:\Users\apsyvert\AppData\Local\Temp\cc8fH946.ltrans27.ltrans.o
                0x0002b9a4                jsvAppendPrintf
 .text.jsvVarPrintf
                0x0002b9f8       0x64 C:\Users\apsyvert\AppData\Local\Temp\cc8fH946.ltrans27.ltrans.o
                0x0002b9f8                jsvVarPrintf
 .text.jsvAppendStringVar
                0x0002ba5c       0xbc C:\Users\apsyvert\AppData\Local\Temp\cc8fH946.ltrans27.ltrans.o
                0x0002ba5c                jsvAppendStringVar
 .text.jsvNewFromStringVar
                0x0002bb18       0x30 C:\Users\apsyvert\AppData\Local\Temp\cc8fH946.ltrans27.ltrans.o
                0x0002bb18                jsvNewFromStringVar
 .text.jsvAppendStringVarComplete
                0x0002bb48       0x20 C:\Users\apsyvert\AppData\Local\Temp\cc8fH946.ltrans27.ltrans.o
                0x0002bb48                jsvAppendStringVarComplete
 .text.jsvGetCharInString
                0x0002bb68       0x50 C:\Users\apsyvert\AppData\Local\Temp\cc8fH946.ltrans27.ltrans.o
                0x0002bb68                jsvGetCharInString
 .text.jsvGetStringIndexOf
                0x0002bbb8       0x7c C:\Users\apsyvert\AppData\Local\Temp\cc8fH946.ltrans27.ltrans.o
                0x0002bbb8                jsvGetStringIndexOf
 .text.jsvIsStringNumericInt
                0x0002bc34      0x13c C:\Users\apsyvert\AppData\Local\Temp\cc8fH946.ltrans27.ltrans.o
                0x0002bc34                jsvIsStringNumericInt
 .text.jsvIsStringNumericStrict.4109
                0x0002bd70       0xfc C:\Users\apsyvert\AppData\Local\Temp\cc8fH946.ltrans27.ltrans.o
 .text.jsvGetInteger
                0x0002be6c      0x118 C:\Users\apsyvert\AppData\Local\Temp\cc8fH946.ltrans27.ltrans.o
                0x0002be6c                jsvGetInteger
 .text.jsvGetLongInteger
                0x0002bf84       0x44 C:\Users\apsyvert\AppData\Local\Temp\cc8fH946.ltrans27.ltrans.o
                0x0002bf84                jsvGetLongInteger
 .text.jsvGetLongIntegerAndUnLock
                0x0002bfc8       0x28 C:\Users\apsyvert\AppData\Local\Temp\cc8fH946.ltrans27.ltrans.o
                0x0002bfc8                jsvGetLongIntegerAndUnLock
 .text.jsvSetInteger
                0x0002bff0       0x3c C:\Users\apsyvert\AppData\Local\Temp\cc8fH946.ltrans27.ltrans.o
                0x0002bff0                jsvSetInteger
 .text.jsvGetBool
                0x0002c02c       0xb8 C:\Users\apsyvert\AppData\Local\Temp\cc8fH946.ltrans27.ltrans.o
                0x0002c02c                jsvGetBool
 .text.jsvGetFloat
                0x0002c0e4      0x188 C:\Users\apsyvert\AppData\Local\Temp\cc8fH946.ltrans27.ltrans.o
                0x0002c0e4                jsvGetFloat
 .text.jsvAsNumber
                0x0002c26c      0x118 C:\Users\apsyvert\AppData\Local\Temp\cc8fH946.ltrans27.ltrans.o
                0x0002c26c                jsvAsNumber
 .text.jsvGetArrayBufferLength
                0x0002c384       0x3c C:\Users\apsyvert\AppData\Local\Temp\cc8fH946.ltrans27.ltrans.o
                0x0002c384                jsvGetArrayBufferLength
 .text.jsvGetArrayBufferBackingString
                0x0002c3c0       0x68 C:\Users\apsyvert\AppData\Local\Temp\cc8fH946.ltrans27.ltrans.o
                0x0002c3c0                jsvGetArrayBufferBackingString
 .text.jsvArrayBufferGet
                0x0002c428       0x38 C:\Users\apsyvert\AppData\Local\Temp\cc8fH946.ltrans27.ltrans.o
                0x0002c428                jsvArrayBufferGet
 .text.jsvArrayBufferSet
                0x0002c460       0x38 C:\Users\apsyvert\AppData\Local\Temp\cc8fH946.ltrans27.ltrans.o
                0x0002c460                jsvArrayBufferSet
 .text.jsvArrayBufferGetFromName
                0x0002c498       0x64 C:\Users\apsyvert\AppData\Local\Temp\cc8fH946.ltrans27.ltrans.o
                0x0002c498                jsvArrayBufferGetFromName
 .text.jsvGetFunctionArgumentLength
                0x0002c4fc       0x84 C:\Users\apsyvert\AppData\Local\Temp\cc8fH946.ltrans27.ltrans.o
                0x0002c4fc                jsvGetFunctionArgumentLength
 .text.jsvIsVariableDefined
                0x0002c580       0x48 C:\Users\apsyvert\AppData\Local\Temp\cc8fH946.ltrans27.ltrans.o
                0x0002c580                jsvIsVariableDefined
 .text.jsvSkipName
                0x0002c5c8       0xf8 C:\Users\apsyvert\AppData\Local\Temp\cc8fH946.ltrans27.ltrans.o
                0x0002c5c8                jsvSkipName
 .text.jsvFreePtr.4171
                0x0002c6c0      0x2a4 C:\Users\apsyvert\AppData\Local\Temp\cc8fH946.ltrans28.ltrans.o
 .text.jsvGetRef
                0x0002c964       0x30 C:\Users\apsyvert\AppData\Local\Temp\cc8fH946.ltrans28.ltrans.o
                0x0002c964                jsvGetRef
 .text.jsvLock  0x0002c994       0x64 C:\Users\apsyvert\AppData\Local\Temp\cc8fH946.ltrans28.ltrans.o
                0x0002c994                jsvLock
 .text.jsvLockAgain
                0x0002c9f8       0x58 C:\Users\apsyvert\AppData\Local\Temp\cc8fH946.ltrans28.ltrans.o
                0x0002c9f8                jsvLockAgain
 .text.jsvLockAgainSafe
                0x0002ca50       0x24 C:\Users\apsyvert\AppData\Local\Temp\cc8fH946.ltrans28.ltrans.o
                0x0002ca50                jsvLockAgainSafe
 .text.jsvUnLockFreeIfNeeded.4679.4156
                0x0002ca74       0x58 C:\Users\apsyvert\AppData\Local\Temp\cc8fH946.ltrans28.ltrans.o
 .text.jsvUnLock
                0x0002cacc       0x54 C:\Users\apsyvert\AppData\Local\Temp\cc8fH946.ltrans28.ltrans.o
                0x0002cacc                jsvUnLock
 .text.jsvUnLock2
                0x0002cb20       0x1c C:\Users\apsyvert\AppData\Local\Temp\cc8fH946.ltrans28.ltrans.o
                0x0002cb20                jsvUnLock2
 .text.jsvUnLock3
                0x0002cb3c       0x24 C:\Users\apsyvert\AppData\Local\Temp\cc8fH946.ltrans28.ltrans.o
                0x0002cb3c                jsvUnLock3
 .text.jsvUnLockMany
                0x0002cb60       0x30 C:\Users\apsyvert\AppData\Local\Temp\cc8fH946.ltrans28.ltrans.o
                0x0002cb60                jsvUnLockMany
 .text.jsvRef   0x0002cb90       0x70 C:\Users\apsyvert\AppData\Local\Temp\cc8fH946.ltrans28.ltrans.o
                0x0002cb90                jsvRef
 .text.jsvUnRef
                0x0002cc00       0x5c C:\Users\apsyvert\AppData\Local\Temp\cc8fH946.ltrans28.ltrans.o
                0x0002cc00                jsvUnRef
 .text.jsvRefRef
                0x0002cc5c       0x60 C:\Users\apsyvert\AppData\Local\Temp\cc8fH946.ltrans28.ltrans.o
                0x0002cc5c                jsvRefRef
 .text.jsvUnRefRef
                0x0002ccbc       0x60 C:\Users\apsyvert\AppData\Local\Temp\cc8fH946.ltrans28.ltrans.o
                0x0002ccbc                jsvUnRefRef
 .text.jsvNewFlatStringOfLength
                0x0002cd1c      0x184 C:\Users\apsyvert\AppData\Local\Temp\cc8fH946.ltrans28.ltrans.o
                0x0002cd1c                jsvNewFlatStringOfLength
 .text.jsvNewFromString
                0x0002cea0       0xc8 C:\Users\apsyvert\AppData\Local\Temp\cc8fH946.ltrans28.ltrans.o
                0x0002cea0                jsvNewFromString
 .text.jsvNewStringOfLength
                0x0002cf68       0x9c C:\Users\apsyvert\AppData\Local\Temp\cc8fH946.ltrans28.ltrans.o
                0x0002cf68                jsvNewStringOfLength
 .text.jsvNewFromInteger
                0x0002d004       0x2c C:\Users\apsyvert\AppData\Local\Temp\cc8fH946.ltrans28.ltrans.o
                0x0002d004                jsvNewFromInteger
 .text.jsvNewFromBool
                0x0002d030       0x2c C:\Users\apsyvert\AppData\Local\Temp\cc8fH946.ltrans28.ltrans.o
                0x0002d030                jsvNewFromBool
 .text.jsvNewFromFloat
                0x0002d05c       0x30 C:\Users\apsyvert\AppData\Local\Temp\cc8fH946.ltrans28.ltrans.o
                0x0002d05c                jsvNewFromFloat
 .text.jsvNewFromLongInteger
                0x0002d08c       0x58 C:\Users\apsyvert\AppData\Local\Temp\cc8fH946.ltrans28.ltrans.o
                0x0002d08c                jsvNewFromLongInteger
 .text.jsvMakeIntoVariableName
                0x0002d0e4      0x2a8 C:\Users\apsyvert\AppData\Local\Temp\cc8fH946.ltrans28.ltrans.o
                0x0002d0e4                jsvMakeIntoVariableName
 .text.jsvMakeFunctionParameter
                0x0002d38c       0x5c C:\Users\apsyvert\AppData\Local\Temp\cc8fH946.ltrans28.ltrans.o
                0x0002d38c                jsvMakeFunctionParameter
 .text.jsvNewFromPin
                0x0002d3e8       0x38 C:\Users\apsyvert\AppData\Local\Temp\cc8fH946.ltrans28.ltrans.o
                0x0002d3e8                jsvNewFromPin
 .text.jsvNewArray
                0x0002d420       0x4c C:\Users\apsyvert\AppData\Local\Temp\cc8fH946.ltrans28.ltrans.o
                0x0002d420                jsvNewArray
 .text.jsvNewNativeFunction
                0x0002d46c       0x34 C:\Users\apsyvert\AppData\Local\Temp\cc8fH946.ltrans28.ltrans.o
                0x0002d46c                jsvNewNativeFunction
 .text.jsvGetNativeFunctionPtr
                0x0002d4a0       0x4c C:\Users\apsyvert\AppData\Local\Temp\cc8fH946.ltrans28.ltrans.o
                0x0002d4a0                jsvGetNativeFunctionPtr
 .text.jsvNewArrayBufferFromString
                0x0002d4ec       0x78 C:\Users\apsyvert\AppData\Local\Temp\cc8fH946.ltrans28.ltrans.o
                0x0002d4ec                jsvNewArrayBufferFromString
 .text.jsvIsBasicVarEqual
                0x0002d564      0x240 C:\Users\apsyvert\AppData\Local\Temp\cc8fH946.ltrans28.ltrans.o
                0x0002d564                jsvIsBasicVarEqual
 .text.jsvGetConstString
                0x0002d7a4       0x64 C:\Users\apsyvert\AppData\Local\Temp\cc8fH946.ltrans28.ltrans.o
                0x0002d7a4                jsvGetConstString
 .text.jsvGetTypeOf
                0x0002d808       0xb4 C:\Users\apsyvert\AppData\Local\Temp\cc8fH946.ltrans28.ltrans.o
                0x0002d808                jsvGetTypeOf
 .text.jsvGetValueOf
                0x0002d8bc       0x7c C:\Users\apsyvert\AppData\Local\Temp\cc8fH946.ltrans28.ltrans.o
                0x0002d8bc                jsvGetValueOf
 .text.jsvGetString
                0x0002d938      0x168 C:\Users\apsyvert\AppData\Local\Temp\cc8fH946.ltrans28.ltrans.o
                0x0002d938                jsvGetString
 .text.isWhitespace.4335
                0x0002daa0       0x4c C:\Users\apsyvert\AppData\Local\Temp\cc8fH946.ltrans29.ltrans.o
                0x0002daa0                isWhitespace.4335
 .text.isNumeric.4341
                0x0002daec       0x30 C:\Users\apsyvert\AppData\Local\Temp\cc8fH946.ltrans29.ltrans.o
                0x0002daec                isNumeric.4341
 .text.itostr.4468
                0x0002db1c       0x20 C:\Users\apsyvert\AppData\Local\Temp\cc8fH946.ltrans29.ltrans.o
                0x0002db1c                itostr.4468
 .text.jsvGetFirstChild.4344
                0x0002db3c       0x18 C:\Users\apsyvert\AppData\Local\Temp\cc8fH946.ltrans29.ltrans.o
                0x0002db3c                jsvGetFirstChild.4344
 .text.jsvGetFirstChildSigned.4392
                0x0002db54       0x1c C:\Users\apsyvert\AppData\Local\Temp\cc8fH946.ltrans29.ltrans.o
                0x0002db54                jsvGetFirstChildSigned.4392
 .text.jsvGetLastChild.4397
                0x0002db70       0x18 C:\Users\apsyvert\AppData\Local\Temp\cc8fH946.ltrans29.ltrans.o
                0x0002db70                jsvGetLastChild.4397
 .text.jsvGetNextSibling.4400
                0x0002db88       0x18 C:\Users\apsyvert\AppData\Local\Temp\cc8fH946.ltrans29.ltrans.o
                0x0002db88                jsvGetNextSibling.4400
 .text.jsvGetPrevSibling.4403
                0x0002dba0       0x18 C:\Users\apsyvert\AppData\Local\Temp\cc8fH946.ltrans29.ltrans.o
                0x0002dba0                jsvGetPrevSibling.4403
 .text.jsvSetFirstChild.4406
                0x0002dbb8       0x1c C:\Users\apsyvert\AppData\Local\Temp\cc8fH946.ltrans29.ltrans.o
                0x0002dbb8                jsvSetFirstChild.4406
 .text.jsvSetLastChild.4410
                0x0002dbd4       0x1c C:\Users\apsyvert\AppData\Local\Temp\cc8fH946.ltrans29.ltrans.o
                0x0002dbd4                jsvSetLastChild.4410
 .text.jsvSetNextSibling.4414
                0x0002dbf0       0x1c C:\Users\apsyvert\AppData\Local\Temp\cc8fH946.ltrans29.ltrans.o
                0x0002dbf0                jsvSetNextSibling.4414
 .text.jsvSetPrevSibling.4418
                0x0002dc0c       0x1c C:\Users\apsyvert\AppData\Local\Temp\cc8fH946.ltrans29.ltrans.o
                0x0002dc0c                jsvSetPrevSibling.4418
 .text.jsvGetRefs.4422
                0x0002dc28       0x18 C:\Users\apsyvert\AppData\Local\Temp\cc8fH946.ltrans29.ltrans.o
                0x0002dc28                jsvGetRefs.4422
 .text.jsvSetRefs.4425
                0x0002dc40       0x1c C:\Users\apsyvert\AppData\Local\Temp\cc8fH946.ltrans29.ltrans.o
                0x0002dc40                jsvSetRefs.4425
 .text.jsvGetLocks.4429
                0x0002dc5c       0x24 C:\Users\apsyvert\AppData\Local\Temp\cc8fH946.ltrans29.ltrans.o
                0x0002dc5c                jsvGetLocks.4429
 .text.jsvNewFromEmptyString.4954
                0x0002dc80       0x18 C:\Users\apsyvert\AppData\Local\Temp\cc8fH946.ltrans29.ltrans.o
                0x0002dc80                jsvNewFromEmptyString.4954
 .text.jsvHasRef.4504
                0x0002dc98       0x30 C:\Users\apsyvert\AppData\Local\Temp\cc8fH946.ltrans29.ltrans.o
                0x0002dc98                jsvHasRef.4504
 .text.jsvGetMaxCharactersInVar.4611
                0x0002dcc8       0x58 C:\Users\apsyvert\AppData\Local\Temp\cc8fH946.ltrans29.ltrans.o
                0x0002dcc8                jsvGetMaxCharactersInVar.4611
 .text.jsvGetCharactersInVar.4465
                0x0002dd20       0x8c C:\Users\apsyvert\AppData\Local\Temp\cc8fH946.ltrans29.ltrans.o
                0x0002dd20                jsvGetCharactersInVar.4465
 .text.jsvSetCharactersInVar.4513
                0x0002ddac      0x120 C:\Users\apsyvert\AppData\Local\Temp\cc8fH946.ltrans29.ltrans.o
                0x0002ddac                jsvSetCharactersInVar.4513
 .text.jsvAppendCharacter.4774
                0x0002decc       0x20 C:\Users\apsyvert\AppData\Local\Temp\cc8fH946.ltrans29.ltrans.o
                0x0002decc                jsvAppendCharacter.4774
 .text._jsvGetIntegerAndUnLock.4985
                0x0002deec       0x20 C:\Users\apsyvert\AppData\Local\Temp\cc8fH946.ltrans29.ltrans.o
                0x0002deec                _jsvGetIntegerAndUnLock.4985
 .text._jsvGetFloatAndUnLock.5091
                0x0002df0c       0x28 C:\Users\apsyvert\AppData\Local\Temp\cc8fH946.ltrans29.ltrans.o
                0x0002df0c                _jsvGetFloatAndUnLock.5091
 .text.jsvStringIteratorGetChar.4432
                0x0002df34       0x2c C:\Users\apsyvert\AppData\Local\Temp\cc8fH946.ltrans29.ltrans.o
                0x0002df34                jsvStringIteratorGetChar.4432
 .text.jsvStringIteratorGetCharOrMinusOne.4443
                0x0002df60       0x30 C:\Users\apsyvert\AppData\Local\Temp\cc8fH946.ltrans29.ltrans.o
                0x0002df60                jsvStringIteratorGetCharOrMinusOne.4443
 .text.jsvStringIteratorHasChar.4446
                0x0002df90       0x28 C:\Users\apsyvert\AppData\Local\Temp\cc8fH946.ltrans29.ltrans.o
                0x0002df90                jsvStringIteratorHasChar.4446
 .text.jsvStringIteratorSetChar.4449
                0x0002dfb8       0x2c C:\Users\apsyvert\AppData\Local\Temp\cc8fH946.ltrans29.ltrans.o
                0x0002dfb8                jsvStringIteratorSetChar.4449
 .text.jsvStringIteratorGetIndex.4453
                0x0002dfe4       0x20 C:\Users\apsyvert\AppData\Local\Temp\cc8fH946.ltrans29.ltrans.o
                0x0002dfe4                jsvStringIteratorGetIndex.4453
 .text.jsvStringIteratorFree.4704
                0x0002e004       0x18 C:\Users\apsyvert\AppData\Local\Temp\cc8fH946.ltrans29.ltrans.o
                0x0002e004                jsvStringIteratorFree.4704
 .text.jsvObjectIteratorNew.4636
                0x0002e01c       0x7c C:\Users\apsyvert\AppData\Local\Temp\cc8fH946.ltrans29.ltrans.o
                0x0002e01c                jsvObjectIteratorNew.4636
 .text.jsvObjectIteratorGetKey.4643
                0x0002e098       0x28 C:\Users\apsyvert\AppData\Local\Temp\cc8fH946.ltrans29.ltrans.o
                0x0002e098                jsvObjectIteratorGetKey.4643
 .text.jsvObjectIteratorGetValue.5001
                0x0002e0c0       0x28 C:\Users\apsyvert\AppData\Local\Temp\cc8fH946.ltrans29.ltrans.o
                0x0002e0c0                jsvObjectIteratorGetValue.5001
 .text.jsvObjectIteratorHasValue.4456
                0x0002e0e8       0x24 C:\Users\apsyvert\AppData\Local\Temp\cc8fH946.ltrans29.ltrans.o
                0x0002e0e8                jsvObjectIteratorHasValue.4456
 .text.jsvObjectIteratorNext.4732
                0x0002e10c       0x48 C:\Users\apsyvert\AppData\Local\Temp\cc8fH946.ltrans29.ltrans.o
                0x0002e10c                jsvObjectIteratorNext.4732
 .text.jsvObjectIteratorFree.4735
                0x0002e154       0x18 C:\Users\apsyvert\AppData\Local\Temp\cc8fH946.ltrans29.ltrans.o
                0x0002e154                jsvObjectIteratorFree.4735
 .text.jsvIsRoot
                0x0002e16c       0x34 C:\Users\apsyvert\AppData\Local\Temp\cc8fH946.ltrans29.ltrans.o
                0x0002e16c                jsvIsRoot
 .text.jsvIsPin
                0x0002e1a0       0x34 C:\Users\apsyvert\AppData\Local\Temp\cc8fH946.ltrans29.ltrans.o
                0x0002e1a0                jsvIsPin
 .text.jsvIsSimpleInt
                0x0002e1d4       0x34 C:\Users\apsyvert\AppData\Local\Temp\cc8fH946.ltrans29.ltrans.o
                0x0002e1d4                jsvIsSimpleInt
 .text.jsvIsInt
                0x0002e208       0x64 C:\Users\apsyvert\AppData\Local\Temp\cc8fH946.ltrans29.ltrans.o
                0x0002e208                jsvIsInt
 .text.jsvIsFloat
                0x0002e26c       0x34 C:\Users\apsyvert\AppData\Local\Temp\cc8fH946.ltrans29.ltrans.o
                0x0002e26c                jsvIsFloat
 .text.jsvIsBoolean
                0x0002e2a0       0x40 C:\Users\apsyvert\AppData\Local\Temp\cc8fH946.ltrans29.ltrans.o
                0x0002e2a0                jsvIsBoolean
 .text.jsvIsString
                0x0002e2e0       0x40 C:\Users\apsyvert\AppData\Local\Temp\cc8fH946.ltrans29.ltrans.o
                0x0002e2e0                jsvIsString
 .text.jsvIsBasicString
                0x0002e320       0x40 C:\Users\apsyvert\AppData\Local\Temp\cc8fH946.ltrans29.ltrans.o
                0x0002e320                jsvIsBasicString
 .text.jsvIsStringExt
                0x0002e360       0x40 C:\Users\apsyvert\AppData\Local\Temp\cc8fH946.ltrans29.ltrans.o
                0x0002e360                jsvIsStringExt
 .text.jsvIsFlatString
                0x0002e3a0       0x34 C:\Users\apsyvert\AppData\Local\Temp\cc8fH946.ltrans29.ltrans.o
                0x0002e3a0                jsvIsFlatString
 .text.jsvIsNativeString
                0x0002e3d4       0x34 C:\Users\apsyvert\AppData\Local\Temp\cc8fH946.ltrans29.ltrans.o
                0x0002e3d4                jsvIsNativeString
 .text.jsvIsNumeric
                0x0002e408       0x40 C:\Users\apsyvert\AppData\Local\Temp\cc8fH946.ltrans29.ltrans.o
                0x0002e408                jsvIsNumeric
 .text.jsvIsFunction
                0x0002e448       0x40 C:\Users\apsyvert\AppData\Local\Temp\cc8fH946.ltrans29.ltrans.o
                0x0002e448                jsvIsFunction
 .text.jsvIsFunctionReturn
                0x0002e488       0x34 C:\Users\apsyvert\AppData\Local\Temp\cc8fH946.ltrans29.ltrans.o
                0x0002e488                jsvIsFunctionReturn
 .text.jsvIsFunctionParameter
                0x0002e4bc       0x3c C:\Users\apsyvert\AppData\Local\Temp\cc8fH946.ltrans29.ltrans.o
                0x0002e4bc                jsvIsFunctionParameter
 .text.jsvIsObject
                0x0002e4f8       0x40 C:\Users\apsyvert\AppData\Local\Temp\cc8fH946.ltrans29.ltrans.o
                0x0002e4f8                jsvIsObject
 .text.jsvIsArray
                0x0002e538       0x34 C:\Users\apsyvert\AppData\Local\Temp\cc8fH946.ltrans29.ltrans.o
                0x0002e538                jsvIsArray
 .text.jsvIsArrayBuffer
                0x0002e56c       0x34 C:\Users\apsyvert\AppData\Local\Temp\cc8fH946.ltrans29.ltrans.o
                0x0002e56c                jsvIsArrayBuffer
 .text.jsvIsArrayBufferName
                0x0002e5a0       0x34 C:\Users\apsyvert\AppData\Local\Temp\cc8fH946.ltrans29.ltrans.o
                0x0002e5a0                jsvIsArrayBufferName
 .text.jsvIsNative
                0x0002e5d4       0x34 C:\Users\apsyvert\AppData\Local\Temp\cc8fH946.ltrans29.ltrans.o
                0x0002e5d4                jsvIsNative
 .text.jsvIsNativeFunction
                0x0002e608       0x34 C:\Users\apsyvert\AppData\Local\Temp\cc8fH946.ltrans29.ltrans.o
                0x0002e608                jsvIsNativeFunction
 .text.jsvIsUndefined
                0x0002e63c       0x20 C:\Users\apsyvert\AppData\Local\Temp\cc8fH946.ltrans29.ltrans.o
                0x0002e63c                jsvIsUndefined
 .text.jsvIsNull
                0x0002e65c       0x34 C:\Users\apsyvert\AppData\Local\Temp\cc8fH946.ltrans29.ltrans.o
                0x0002e65c                jsvIsNull
 .text.jsvIsBasic
                0x0002e690       0x34 C:\Users\apsyvert\AppData\Local\Temp\cc8fH946.ltrans29.ltrans.o
                0x0002e690                jsvIsBasic
 .text.jsvIsName
                0x0002e6c4       0x40 C:\Users\apsyvert\AppData\Local\Temp\cc8fH946.ltrans29.ltrans.o
                0x0002e6c4                jsvIsName
 .text.jsvIsNameWithValue
                0x0002e704       0x40 C:\Users\apsyvert\AppData\Local\Temp\cc8fH946.ltrans29.ltrans.o
                0x0002e704                jsvIsNameWithValue
 .text.jsvIsNameInt
                0x0002e744       0x4c C:\Users\apsyvert\AppData\Local\Temp\cc8fH946.ltrans29.ltrans.o
                0x0002e744                jsvIsNameInt
 .text.jsvIsNameIntBool
                0x0002e790       0x34 C:\Users\apsyvert\AppData\Local\Temp\cc8fH946.ltrans29.ltrans.o
                0x0002e790                jsvIsNameIntBool
 .text.jsvIsNewChild
                0x0002e7c4       0x4c C:\Users\apsyvert\AppData\Local\Temp\cc8fH946.ltrans29.ltrans.o
                0x0002e7c4                jsvIsNewChild
 .text.jsvIsRefUsedForData
                0x0002e810       0x78 C:\Users\apsyvert\AppData\Local\Temp\cc8fH946.ltrans29.ltrans.o
                0x0002e810                jsvIsRefUsedForData
 .text.jsvIsIntegerish
                0x0002e888       0x4c C:\Users\apsyvert\AppData\Local\Temp\cc8fH946.ltrans29.ltrans.o
                0x0002e888                jsvIsIntegerish
 .text.jsvIsIterable
                0x0002e8d4       0x58 C:\Users\apsyvert\AppData\Local\Temp\cc8fH946.ltrans29.ltrans.o
                0x0002e8d4                jsvIsIterable
 .text.jsvGetAddressOf.4462
                0x0002e92c       0x38 C:\Users\apsyvert\AppData\Local\Temp\cc8fH946.ltrans29.ltrans.o
                0x0002e92c                jsvGetAddressOf.4462
 .text._jsvGetAddressOf
                0x0002e964       0x1c C:\Users\apsyvert\AppData\Local\Temp\cc8fH946.ltrans29.ltrans.o
                0x0002e964                _jsvGetAddressOf
 .text.jsvCreateEmptyVarList.4111
                0x0002e980       0x98 C:\Users\apsyvert\AppData\Local\Temp\cc8fH946.ltrans29.ltrans.o
 .text.jsvClearEmptyVarList.4109
                0x0002ea18       0x70 C:\Users\apsyvert\AppData\Local\Temp\cc8fH946.ltrans29.ltrans.o
 .text.jsvSoftInit
                0x0002ea88        0xc C:\Users\apsyvert\AppData\Local\Temp\cc8fH946.ltrans29.ltrans.o
                0x0002ea88                jsvSoftInit
 .text.jsvSoftKill
                0x0002ea94        0xc C:\Users\apsyvert\AppData\Local\Temp\cc8fH946.ltrans29.ltrans.o
                0x0002ea94                jsvSoftKill
 .text.jsvInitJsVars.4592.4101
                0x0002eaa0       0x6c C:\Users\apsyvert\AppData\Local\Temp\cc8fH946.ltrans29.ltrans.o
 .text.jsvInit  0x0002eb0c       0x28 C:\Users\apsyvert\AppData\Local\Temp\cc8fH946.ltrans29.ltrans.o
                0x0002eb0c                jsvInit
 .text.jsvKill  0x0002eb34        0xc C:\Users\apsyvert\AppData\Local\Temp\cc8fH946.ltrans29.ltrans.o
                0x0002eb34                jsvKill
 .text.jsvFindOrCreateRoot
                0x0002eb40       0x5c C:\Users\apsyvert\AppData\Local\Temp\cc8fH946.ltrans29.ltrans.o
                0x0002eb40                jsvFindOrCreateRoot
 .text.jsvGetMemoryUsage
                0x0002eb9c       0x70 C:\Users\apsyvert\AppData\Local\Temp\cc8fH946.ltrans29.ltrans.o
                0x0002eb9c                jsvGetMemoryUsage
 .text.jsvGetMemoryTotal
                0x0002ec0c       0x18 C:\Users\apsyvert\AppData\Local\Temp\cc8fH946.ltrans29.ltrans.o
                0x0002ec0c                jsvGetMemoryTotal
 .text.jsvMoreFreeVariablesThan
                0x0002ec24       0x54 C:\Users\apsyvert\AppData\Local\Temp\cc8fH946.ltrans29.ltrans.o
                0x0002ec24                jsvMoreFreeVariablesThan
 .text.jsvHasCharacterData
                0x0002ec78       0x34 C:\Users\apsyvert\AppData\Local\Temp\cc8fH946.ltrans29.ltrans.o
                0x0002ec78                jsvHasCharacterData
 .text.jsvHasStringExt
                0x0002ecac       0x34 C:\Users\apsyvert\AppData\Local\Temp\cc8fH946.ltrans29.ltrans.o
                0x0002ecac                jsvHasStringExt
 .text.jsvHasChildren
                0x0002ece0       0x4c C:\Users\apsyvert\AppData\Local\Temp\cc8fH946.ltrans29.ltrans.o
                0x0002ece0                jsvHasChildren
 .text.jsvHasSingleChild
                0x0002ed2c       0x48 C:\Users\apsyvert\AppData\Local\Temp\cc8fH946.ltrans29.ltrans.o
                0x0002ed2c                jsvHasSingleChild
 .text.jsvResetVariable
                0x0002ed74       0x78 C:\Users\apsyvert\AppData\Local\Temp\cc8fH946.ltrans29.ltrans.o
                0x0002ed74                jsvResetVariable
 .text.jsvNewWithFlags
                0x0002edec       0xe0 C:\Users\apsyvert\AppData\Local\Temp\cc8fH946.ltrans29.ltrans.o
                0x0002edec                jsvNewWithFlags
 .text.jsvFreePtrInternal
                0x0002eecc       0x5c C:\Users\apsyvert\AppData\Local\Temp\cc8fH946.ltrans29.ltrans.o
                0x0002eecc                jsvFreePtrInternal
 .text.isWhitespace.4010.4225
                0x0002ef28       0x4c C:\Users\apsyvert\AppData\Local\Temp\cc8fH946.ltrans30.ltrans.o
 .text.isNumeric.4016.4222
                0x0002ef74       0x30 C:\Users\apsyvert\AppData\Local\Temp\cc8fH946.ltrans30.ltrans.o
 .text.isHexadecimal.4019.4219
                0x0002efa4       0x48 C:\Users\apsyvert\AppData\Local\Temp\cc8fH946.ltrans30.ltrans.o
 .text.isAlpha.4022.4216
                0x0002efec       0x40 C:\Users\apsyvert\AppData\Local\Temp\cc8fH946.ltrans30.ltrans.o
 .text.itostr.4128.4211
                0x0002f02c       0x20 C:\Users\apsyvert\AppData\Local\Temp\cc8fH946.ltrans30.ltrans.o
 .text.jsvGetLastChild.4025.4208
                0x0002f04c       0x18 C:\Users\apsyvert\AppData\Local\Temp\cc8fH946.ltrans30.ltrans.o
 .text.jsvSetLastChild.4073.4204
                0x0002f064       0x1c C:\Users\apsyvert\AppData\Local\Temp\cc8fH946.ltrans30.ltrans.o
 .text.jsvNewFromEmptyString.4126.4202
                0x0002f080       0x18 C:\Users\apsyvert\AppData\Local\Temp\cc8fH946.ltrans30.ltrans.o
 .text.jsvGetMaxCharactersInVar.4133.4199
                0x0002f098       0x58 C:\Users\apsyvert\AppData\Local\Temp\cc8fH946.ltrans30.ltrans.o
 .text.jsvGetCharactersInVar.4123.4196
                0x0002f0f0       0x8c C:\Users\apsyvert\AppData\Local\Temp\cc8fH946.ltrans30.ltrans.o
 .text.jsvSetCharactersInVar.4136.4192
                0x0002f17c      0x120 C:\Users\apsyvert\AppData\Local\Temp\cc8fH946.ltrans30.ltrans.o
 .text.jsvStringIteratorClone.4120.4189
                0x0002f29c       0x40 C:\Users\apsyvert\AppData\Local\Temp\cc8fH946.ltrans30.ltrans.o
 .text.jsvStringIteratorGetChar.4077.4186
                0x0002f2dc       0x2c C:\Users\apsyvert\AppData\Local\Temp\cc8fH946.ltrans30.ltrans.o
 .text.jsvStringIteratorHasChar.4088.4183
                0x0002f308       0x28 C:\Users\apsyvert\AppData\Local\Temp\cc8fH946.ltrans30.ltrans.o
 .text.jsvStringIteratorGetIndex.4091.4180
                0x0002f330       0x20 C:\Users\apsyvert\AppData\Local\Temp\cc8fH946.ltrans30.ltrans.o
 .text.jsvStringIteratorFree.4117.4177
                0x0002f350       0x18 C:\Users\apsyvert\AppData\Local\Temp\cc8fH946.ltrans30.ltrans.o
 .text.jslCharPosFree
                0x0002f368       0x18 C:\Users\apsyvert\AppData\Local\Temp\cc8fH946.ltrans30.ltrans.o
                0x0002f368                jslCharPosFree
 .text.jslCharPosClone
                0x0002f380       0x48 C:\Users\apsyvert\AppData\Local\Temp\cc8fH946.ltrans30.ltrans.o
                0x0002f380                jslCharPosClone
 .text.jslNextCh.4094.4168
                0x0002f3c8       0x2c C:\Users\apsyvert\AppData\Local\Temp\cc8fH946.ltrans30.ltrans.o
 .text.jslGetNextCh.4146.4165
                0x0002f3f4       0xbc C:\Users\apsyvert\AppData\Local\Temp\cc8fH946.ltrans30.ltrans.o
 .text.jslTokenAppendChar.4113.4161
                0x0002f4b0       0x3c C:\Users\apsyvert\AppData\Local\Temp\cc8fH946.ltrans30.ltrans.o
 .text.jslIsToken.4152.4156
                0x0002f4ec       0x64 C:\Users\apsyvert\AppData\Local\Temp\cc8fH946.ltrans30.ltrans.o
 .text.jslSingleChar.4149.4153
                0x0002f550       0x20 C:\Users\apsyvert\AppData\Local\Temp\cc8fH946.ltrans30.ltrans.o
 .text.jslGetNextToken
                0x0002f570      0xcc4 C:\Users\apsyvert\AppData\Local\Temp\cc8fH946.ltrans30.ltrans.o
                0x0002f570                jslGetNextToken
 .text.jslPreload.4160.4147
                0x00030234       0x1c C:\Users\apsyvert\AppData\Local\Temp\cc8fH946.ltrans30.ltrans.o
 .text.jslInit  0x00030250       0x70 C:\Users\apsyvert\AppData\Local\Temp\cc8fH946.ltrans30.ltrans.o
                0x00030250                jslInit
 .text.jslKill  0x000302c0       0x60 C:\Users\apsyvert\AppData\Local\Temp\cc8fH946.ltrans30.ltrans.o
                0x000302c0                jslKill
 .text.jslSeekToP
                0x00030320       0x6c C:\Users\apsyvert\AppData\Local\Temp\cc8fH946.ltrans30.ltrans.o
                0x00030320                jslSeekToP
 .text.jslTokenAsString
                0x0003038c      0x240 C:\Users\apsyvert\AppData\Local\Temp\cc8fH946.ltrans30.ltrans.o
                0x0003038c                jslTokenAsString
 .text.jslGetTokenString.4119
                0x000305cc       0x90 C:\Users\apsyvert\AppData\Local\Temp\cc8fH946.ltrans30.ltrans.o
 .text.jslGetTokenValueAsString
                0x0003065c       0x44 C:\Users\apsyvert\AppData\Local\Temp\cc8fH946.ltrans30.ltrans.o
                0x0003065c                jslGetTokenValueAsString
 .text.jslGetTokenValueAsVar
                0x000306a0       0x60 C:\Users\apsyvert\AppData\Local\Temp\cc8fH946.ltrans30.ltrans.o
                0x000306a0                jslGetTokenValueAsVar
 .text.jslIsIDOrReservedWord
                0x00030700       0x38 C:\Users\apsyvert\AppData\Local\Temp\cc8fH946.ltrans30.ltrans.o
                0x00030700                jslIsIDOrReservedWord
 .text.jslMatch
                0x00030738       0x80 C:\Users\apsyvert\AppData\Local\Temp\cc8fH946.ltrans30.ltrans.o
                0x00030738                jslMatch
 .text.jslNewFromLexer
                0x000307b8      0x1c8 C:\Users\apsyvert\AppData\Local\Temp\cc8fH946.ltrans30.ltrans.o
                0x000307b8                jslNewFromLexer
 .text.jslGetLineNumber
                0x00030980       0x34 C:\Users\apsyvert\AppData\Local\Temp\cc8fH946.ltrans30.ltrans.o
                0x00030980                jslGetLineNumber
 .text.jslPrintPosition
                0x000309b4       0x58 C:\Users\apsyvert\AppData\Local\Temp\cc8fH946.ltrans30.ltrans.o
                0x000309b4                jslPrintPosition
 .text.jslPrintTokenLineMarker
                0x00030a0c      0x170 C:\Users\apsyvert\AppData\Local\Temp\cc8fH946.ltrans30.ltrans.o
                0x00030a0c                jslPrintTokenLineMarker
 .text          0x00030b7c      0x370 c:/siliconlabs/simplicitystudio/v3/developer/toolchains/gnu_arm/4.8_2013q4/bin/../lib/gcc/arm-none-eabi/4.8.3/armv7-m\libgcc.a(_arm_addsubdf3.o)
                0x00030b7c                __aeabi_drsub
                0x00030b84                __aeabi_dsub
                0x00030b84                __subdf3
                0x00030b88                __aeabi_dadd
                0x00030b88                __adddf3
                0x00030e00                __floatunsidf
                0x00030e00                __aeabi_ui2d
                0x00030e20                __floatsidf
                0x00030e20                __aeabi_i2d
                0x00030e44                __aeabi_f2d
                0x00030e44                __extendsfdf2
                0x00030e80                __floatundidf
                0x00030e80                __aeabi_ul2d
                0x00030e90                __floatdidf
                0x00030e90                __aeabi_l2d
 .text          0x00030eec      0x424 c:/siliconlabs/simplicitystudio/v3/developer/toolchains/gnu_arm/4.8_2013q4/bin/../lib/gcc/arm-none-eabi/4.8.3/armv7-m\libgcc.a(_arm_muldivdf3.o)
                0x00030eec                __aeabi_dmul
                0x00030eec                __muldf3
                0x00031140                __divdf3
                0x00031140                __aeabi_ddiv
 .text          0x00031310      0x110 c:/siliconlabs/simplicitystudio/v3/developer/toolchains/gnu_arm/4.8_2013q4/bin/../lib/gcc/arm-none-eabi/4.8.3/armv7-m\libgcc.a(_arm_cmpdf2.o)
                0x00031310                __gtdf2
                0x00031310                __gedf2
                0x00031318                __ltdf2
                0x00031318                __ledf2
                0x00031320                __nedf2
                0x00031320                __eqdf2
                0x00031320                __cmpdf2
                0x0003139c                __aeabi_cdrcmple
                0x000313ac                __aeabi_cdcmpeq
                0x000313ac                __aeabi_cdcmple
                0x000313bc                __aeabi_dcmpeq
                0x000313d0                __aeabi_dcmplt
                0x000313e4                __aeabi_dcmple
                0x000313f8                __aeabi_dcmpge
                0x0003140c                __aeabi_dcmpgt
 .text          0x00031420       0x2c c:/siliconlabs/simplicitystudio/v3/developer/toolchains/gnu_arm/4.8_2013q4/bin/../lib/gcc/arm-none-eabi/4.8.3/armv7-m\libgcc.a(_arm_unorddf2.o)
                0x00031420                __unorddf2
                0x00031420                __aeabi_dcmpun
 .text          0x0003144c       0x50 c:/siliconlabs/simplicitystudio/v3/developer/toolchains/gnu_arm/4.8_2013q4/bin/../lib/gcc/arm-none-eabi/4.8.3/armv7-m\libgcc.a(_arm_fixdfsi.o)
                0x0003144c                __aeabi_d2iz
                0x0003144c                __fixdfsi
 .text          0x0003149c       0x40 c:/siliconlabs/simplicitystudio/v3/developer/toolchains/gnu_arm/4.8_2013q4/bin/../lib/gcc/arm-none-eabi/4.8.3/armv7-m\libgcc.a(_arm_fixunsdfsi.o)
                0x0003149c                __aeabi_d2uiz
                0x0003149c                __fixunsdfsi
 .text          0x000314dc       0xa0 c:/siliconlabs/simplicitystudio/v3/developer/toolchains/gnu_arm/4.8_2013q4/bin/../lib/gcc/arm-none-eabi/4.8.3/armv7-m\libgcc.a(_arm_truncdfsf2.o)
                0x000314dc                __truncdfsf2
                0x000314dc                __aeabi_d2f
 .text          0x0003157c       0x38 c:/siliconlabs/simplicitystudio/v3/developer/toolchains/gnu_arm/4.8_2013q4/bin/../lib/gcc/arm-none-eabi/4.8.3/armv7-m\libgcc.a(_aeabi_ldivmod.o)
                0x0003157c                __aeabi_ldivmod
 .text          0x000315b4       0x2c c:/siliconlabs/simplicitystudio/v3/developer/toolchains/gnu_arm/4.8_2013q4/bin/../lib/gcc/arm-none-eabi/4.8.3/armv7-m\libgcc.a(_aeabi_uldivmod.o)
                0x000315b4                __aeabi_uldivmod
 .text          0x000315e0       0x30 c:/siliconlabs/simplicitystudio/v3/developer/toolchains/gnu_arm/4.8_2013q4/bin/../lib/gcc/arm-none-eabi/4.8.3/armv7-m\libgcc.a(_fixdfdi.o)
                0x000315e0                __fixdfdi
                0x000315e0                __aeabi_d2lz
 .text          0x00031610       0x44 c:/siliconlabs/simplicitystudio/v3/developer/toolchains/gnu_arm/4.8_2013q4/bin/../lib/gcc/arm-none-eabi/4.8.3/armv7-m\libgcc.a(_fixunsdfdi.o)
                0x00031610                __fixunsdfdi
                0x00031610                __aeabi_d2ulz
 .text          0x00031654       0x60 c:/siliconlabs/simplicitystudio/v3/developer/toolchains/gnu_arm/4.8_2013q4/bin/../lib/gcc/arm-none-eabi/4.8.3/armv7-m\libgcc.a(bpabi.o)
                0x00031654                __gnu_ldivmod_helper
                0x00031684                __gnu_uldivmod_helper
 .text          0x000316b4        0x4 c:/siliconlabs/simplicitystudio/v3/developer/toolchains/gnu_arm/4.8_2013q4/bin/../lib/gcc/arm-none-eabi/4.8.3/armv7-m\libgcc.a(_dvmd_tls.o)
                0x000316b4                __aeabi_idiv0
                0x000316b4                __aeabi_ldiv0
 .text          0x000316b8      0x2a0 c:/siliconlabs/simplicitystudio/v3/developer/toolchains/gnu_arm/4.8_2013q4/bin/../lib/gcc/arm-none-eabi/4.8.3/armv7-m\libgcc.a(_divdi3.o)
                0x000316b8                __divdi3
 .text          0x00031958      0x290 c:/siliconlabs/simplicitystudio/v3/developer/toolchains/gnu_arm/4.8_2013q4/bin/../lib/gcc/arm-none-eabi/4.8.3/armv7-m\libgcc.a(_udivdi3.o)
                0x00031958                __udivdi3
 .text          0x00031be8       0xec c:/siliconlabs/simplicitystudio/v3/developer/toolchains/gnu_arm/4.8_2013q4/bin/../lib/gcc/arm-none-eabi/4.8.3/../../../../arm-none-eabi/lib/armv7-m\libg.a(lib_a-memcpy.o)
                0x00031be8                memcpy
 .text.memmove  0x00031cd4       0xcc c:/siliconlabs/simplicitystudio/v3/developer/toolchains/gnu_arm/4.8_2013q4/bin/../lib/gcc/arm-none-eabi/4.8.3/../../../../arm-none-eabi/lib/armv7-m\libg.a(lib_a-memmove.o)
                0x00031cd4                memmove
 .text          0x00031da0      0x23c c:/siliconlabs/simplicitystudio/v3/developer/toolchains/gnu_arm/4.8_2013q4/bin/../lib/gcc/arm-none-eabi/4.8.3/../../../../arm-none-eabi/lib/armv7-m\libg.a(lib_a-strcmp.o)
                0x00031da0                strcmp
 .text.strlen   0x00031fdc       0x60 c:/siliconlabs/simplicitystudio/v3/developer/toolchains/gnu_arm/4.8_2013q4/bin/../lib/gcc/arm-none-eabi/4.8.3/../../../../arm-none-eabi/lib/armv7-m\libg.a(lib_a-strlen.o)
                0x00031fdc                strlen
 .text.strncat  0x0003203c       0x64 c:/siliconlabs/simplicitystudio/v3/developer/toolchains/gnu_arm/4.8_2013q4/bin/../lib/gcc/arm-none-eabi/4.8.3/../../../../arm-none-eabi/lib/armv7-m\libg.a(lib_a-strncat.o)
                0x0003203c                strncat
 .text.strncpy  0x000320a0       0x64 c:/siliconlabs/simplicitystudio/v3/developer/toolchains/gnu_arm/4.8_2013q4/bin/../lib/gcc/arm-none-eabi/4.8.3/../../../../arm-none-eabi/lib/armv7-m\libg.a(lib_a-strncpy.o)
                0x000320a0                strncpy
 .text.srand    0x00032104       0x10 c:/siliconlabs/simplicitystudio/v3/developer/toolchains/gnu_arm/4.8_2013q4/bin/../lib/gcc/arm-none-eabi/4.8.3/../../../../arm-none-eabi/lib/armv7-m\libg.a(lib_a-rand.o)
                0x00032104                srand
 .text.rand     0x00032114       0x40 c:/siliconlabs/simplicitystudio/v3/developer/toolchains/gnu_arm/4.8_2013q4/bin/../lib/gcc/arm-none-eabi/4.8.3/../../../../arm-none-eabi/lib/armv7-m\libg.a(lib_a-rand.o)
                0x00032114                rand
 *(.init)
 .init          0x00032154        0x4 c:/siliconlabs/simplicitystudio/v3/developer/toolchains/gnu_arm/4.8_2013q4/bin/../lib/gcc/arm-none-eabi/4.8.3/armv7-m/crti.o
                0x00032154                _init
 .init          0x00032158        0x8 c:/siliconlabs/simplicitystudio/v3/developer/toolchains/gnu_arm/4.8_2013q4/bin/../lib/gcc/arm-none-eabi/4.8.3/armv7-m/crtn.o
 *(.fini)
 .fini          0x00032160        0x4 c:/siliconlabs/simplicitystudio/v3/developer/toolchains/gnu_arm/4.8_2013q4/bin/../lib/gcc/arm-none-eabi/4.8.3/armv7-m/crti.o
                0x00032160                _fini
 .fini          0x00032164        0x8 c:/siliconlabs/simplicitystudio/v3/developer/toolchains/gnu_arm/4.8_2013q4/bin/../lib/gcc/arm-none-eabi/4.8.3/armv7-m/crtn.o
 *fill*         0x0003216c        0x4 
 .fini.__stub   0x00032170       0x20 linker stubs
 *crtbegin.o(.ctors)
 *crtbegin?.o(.ctors)
 *(EXCLUDE_FILE(*crtend.o *crtend?.o) .ctors)
 *(SORT(.ctors.*))
 *(.ctors)
 *crtbegin.o(.dtors)
 *crtbegin?.o(.dtors)
 *(EXCLUDE_FILE(*crtend.o *crtend?.o) .dtors)
 *(SORT(.dtors.*))
 *(.dtors)
 *(.rodata*)
 .rodata.str1.4
                0x00032190        0x4 c:/siliconlabs/simplicitystudio/v3/developer/toolchains/gnu_arm/4.8_2013q4/bin/../lib/gcc/arm-none-eabi/4.8.3/../../../../arm-none-eabi/lib/armv7-m\libc.a(lib_a-impure.o)
 .rodata._global_impure_ptr
                0x00032194        0x4 c:/siliconlabs/simplicitystudio/v3/developer/toolchains/gnu_arm/4.8_2013q4/bin/../lib/gcc/arm-none-eabi/4.8.3/../../../../arm-none-eabi/lib/armv7-m\libc.a(lib_a-impure.o)
                0x00032194                _global_impure_ptr
 .rodata.jslJumpTable
                0x00032198       0x5c C:\Users\apsyvert\AppData\Local\Temp\cc8fH946.ltrans0.ltrans.o
                0x00032198                jslJumpTable
 .rodata.jswSymbols_I2C.9075
                0x000321f4        0x8 C:\Users\apsyvert\AppData\Local\Temp\cc8fH946.ltrans0.ltrans.o
                0x000321f4                jswSymbols_I2C.9075
 .rodata.jswSymbols_Number_proto.9076
                0x000321fc        0x8 C:\Users\apsyvert\AppData\Local\Temp\cc8fH946.ltrans0.ltrans.o
                0x000321fc                jswSymbols_Number_proto.9076
 .rodata.jswSymbols_Number.9077
                0x00032204       0x28 C:\Users\apsyvert\AppData\Local\Temp\cc8fH946.ltrans0.ltrans.o
                0x00032204                jswSymbols_Number.9077
 .rodata.jswSymbols_JSON.9078
                0x0003222c       0x10 C:\Users\apsyvert\AppData\Local\Temp\cc8fH946.ltrans0.ltrans.o
                0x0003222c                jswSymbols_JSON.9078
 .rodata.jswSymbols_Flash.9079
                0x0003223c       0x20 C:\Users\apsyvert\AppData\Local\Temp\cc8fH946.ltrans0.ltrans.o
                0x0003223c                jswSymbols_Flash.9079
 .rodata.jswSymbols_ReferenceError_proto.9080
                0x0003225c        0x8 C:\Users\apsyvert\AppData\Local\Temp\cc8fH946.ltrans0.ltrans.o
                0x0003225c                jswSymbols_ReferenceError_proto.9080
 .rodata.jswSymbols_Date_proto.9081
                0x00032264       0x68 C:\Users\apsyvert\AppData\Local\Temp\cc8fH946.ltrans0.ltrans.o
                0x00032264                jswSymbols_Date_proto.9081
 .rodata.jswSymbols_E.9082
                0x000322cc       0xc0 C:\Users\apsyvert\AppData\Local\Temp\cc8fH946.ltrans0.ltrans.o
                0x000322cc                jswSymbols_E.9082
 .rodata.jswSymbols_Error_proto.9083
                0x0003238c        0x8 C:\Users\apsyvert\AppData\Local\Temp\cc8fH946.ltrans0.ltrans.o
                0x0003238c                jswSymbols_Error_proto.9083
 .rodata.jswSymbols_Serial.9084
                0x00032394        0x8 C:\Users\apsyvert\AppData\Local\Temp\cc8fH946.ltrans0.ltrans.o
                0x00032394                jswSymbols_Serial.9084
 .rodata.jswSymbols_TypeError_proto.9085
                0x0003239c        0x8 C:\Users\apsyvert\AppData\Local\Temp\cc8fH946.ltrans0.ltrans.o
                0x0003239c                jswSymbols_TypeError_proto.9085
 .rodata.jswSymbols_Math.9086
                0x000323a4       0xe0 C:\Users\apsyvert\AppData\Local\Temp\cc8fH946.ltrans0.ltrans.o
                0x000323a4                jswSymbols_Math.9086
 .rodata.jswSymbols_SPI_proto.9087
                0x00032484       0x28 C:\Users\apsyvert\AppData\Local\Temp\cc8fH946.ltrans0.ltrans.o
                0x00032484                jswSymbols_SPI_proto.9087
 .rodata.jswSymbols_Object_proto.9088
                0x000324ac       0x40 C:\Users\apsyvert\AppData\Local\Temp\cc8fH946.ltrans0.ltrans.o
                0x000324ac                jswSymbols_Object_proto.9088
 .rodata.jswSymbols_String_proto.9089
                0x000324ec       0x68 C:\Users\apsyvert\AppData\Local\Temp\cc8fH946.ltrans0.ltrans.o
                0x000324ec                jswSymbols_String_proto.9089
 .rodata.jswSymbols_Serial_proto.9090
                0x00032554       0x48 C:\Users\apsyvert\AppData\Local\Temp\cc8fH946.ltrans0.ltrans.o
                0x00032554                jswSymbols_Serial_proto.9090
 .rodata.jswSymbols_SyntaxError_proto.9091
                0x0003259c        0x8 C:\Users\apsyvert\AppData\Local\Temp\cc8fH946.ltrans0.ltrans.o
                0x0003259c                jswSymbols_SyntaxError_proto.9091
 .rodata.jswSymbols_global.9092
                0x000325a4      0x308 C:\Users\apsyvert\AppData\Local\Temp\cc8fH946.ltrans0.ltrans.o
                0x000325a4                jswSymbols_global.9092
 .rodata.jswSymbols_Array.9093
                0x000328ac        0x8 C:\Users\apsyvert\AppData\Local\Temp\cc8fH946.ltrans0.ltrans.o
                0x000328ac                jswSymbols_Array.9093
 .rodata.jswSymbols_Object.9094
                0x000328b4       0x30 C:\Users\apsyvert\AppData\Local\Temp\cc8fH946.ltrans0.ltrans.o
                0x000328b4                jswSymbols_Object.9094
 .rodata.jswSymbols_Array_proto.9095
                0x000328e4       0xa0 C:\Users\apsyvert\AppData\Local\Temp\cc8fH946.ltrans0.ltrans.o
                0x000328e4                jswSymbols_Array_proto.9095
 .rodata.jswSymbols_Pin_proto.9096
                0x00032984       0x40 C:\Users\apsyvert\AppData\Local\Temp\cc8fH946.ltrans0.ltrans.o
                0x00032984                jswSymbols_Pin_proto.9096
 .rodata.jswSymbols_fs.9097
                0x000329c4        0x8 C:\Users\apsyvert\AppData\Local\Temp\cc8fH946.ltrans0.ltrans.o
                0x000329c4                jswSymbols_fs.9097
 .rodata.jswSymbols_ArrayBufferView_proto.9098
                0x000329cc       0x68 C:\Users\apsyvert\AppData\Local\Temp\cc8fH946.ltrans0.ltrans.o
                0x000329cc                jswSymbols_ArrayBufferView_proto.9098
 .rodata.jswSymbols_Function_proto.9099
                0x00032a34       0x20 C:\Users\apsyvert\AppData\Local\Temp\cc8fH946.ltrans0.ltrans.o
                0x00032a34                jswSymbols_Function_proto.9099
 .rodata.jswSymbols_Date.9100
                0x00032a54       0x10 C:\Users\apsyvert\AppData\Local\Temp\cc8fH946.ltrans0.ltrans.o
                0x00032a54                jswSymbols_Date.9100
 .rodata.jswSymbols_console.9101
                0x00032a64        0x8 C:\Users\apsyvert\AppData\Local\Temp\cc8fH946.ltrans0.ltrans.o
                0x00032a64                jswSymbols_console.9101
 .rodata.jswSymbols_Waveform_proto.9102
                0x00032a6c       0x18 C:\Users\apsyvert\AppData\Local\Temp\cc8fH946.ltrans0.ltrans.o
                0x00032a6c                jswSymbols_Waveform_proto.9102
 .rodata.jswSymbols_process.9103
                0x00032a84       0x18 C:\Users\apsyvert\AppData\Local\Temp\cc8fH946.ltrans0.ltrans.o
                0x00032a84                jswSymbols_process.9103
 .rodata.jswSymbols_I2C_proto.9104
                0x00032a9c       0x18 C:\Users\apsyvert\AppData\Local\Temp\cc8fH946.ltrans0.ltrans.o
                0x00032a9c                jswSymbols_I2C_proto.9104
 .rodata.jswSymbols_String.9105
                0x00032ab4        0x8 C:\Users\apsyvert\AppData\Local\Temp\cc8fH946.ltrans0.ltrans.o
                0x00032ab4                jswSymbols_String.9105
 .rodata.jswSymbols_Modules.9106
                0x00032abc       0x20 C:\Users\apsyvert\AppData\Local\Temp\cc8fH946.ltrans0.ltrans.o
                0x00032abc                jswSymbols_Modules.9106
 .rodata.jswSymbols_OneWire_proto.9107
                0x00032adc       0x38 C:\Users\apsyvert\AppData\Local\Temp\cc8fH946.ltrans0.ltrans.o
                0x00032adc                jswSymbols_OneWire_proto.9107
 .rodata.jswSymbols_InternalError_proto.9108
                0x00032b14        0x8 C:\Users\apsyvert\AppData\Local\Temp\cc8fH946.ltrans0.ltrans.o
                0x00032b14                jswSymbols_InternalError_proto.9108
 .rodata.jswSymbols_SPI.9109
                0x00032b1c        0x8 C:\Users\apsyvert\AppData\Local\Temp\cc8fH946.ltrans0.ltrans.o
                0x00032b1c                jswSymbols_SPI.9109
 .rodata        0x00032b24      0xdd8 C:\Users\apsyvert\AppData\Local\Temp\cc8fH946.ltrans0.ltrans.o
 .rodata.jswSymbolTables
                0x000338fc      0x13c C:\Users\apsyvert\AppData\Local\Temp\cc8fH946.ltrans0.ltrans.o
                0x000338fc                jswSymbolTables
 *fill*         0x00033a38        0x0 
 .rodata.P.9588
                0x00033a38       0x30 C:\Users\apsyvert\AppData\Local\Temp\cc8fH946.ltrans0.ltrans.o
                0x00033a38                P.9588
 .rodata.Q.9589
                0x00033a68       0x28 C:\Users\apsyvert\AppData\Local\Temp\cc8fH946.ltrans0.ltrans.o
                0x00033a68                Q.9589
 .rodata.R.9584
                0x00033a90       0x28 C:\Users\apsyvert\AppData\Local\Temp\cc8fH946.ltrans0.ltrans.o
                0x00033a90                R.9584
 .rodata.S.9586
                0x00033ab8       0x20 C:\Users\apsyvert\AppData\Local\Temp\cc8fH946.ltrans0.ltrans.o
                0x00033ab8                S.9586
 .rodata.P.9620
                0x00033ad8       0x28 C:\Users\apsyvert\AppData\Local\Temp\cc8fH946.ltrans0.ltrans.o
                0x00033ad8                P.9620
 .rodata.Q.9622
                0x00033b00       0x28 C:\Users\apsyvert\AppData\Local\Temp\cc8fH946.ltrans0.ltrans.o
                0x00033b00                Q.9622
 .rodata.MAXLOG
                0x00033b28        0x8 C:\Users\apsyvert\AppData\Local\Temp\cc8fH946.ltrans0.ltrans.o
                0x00033b28                MAXLOG
 .rodata.MINLOG
                0x00033b30        0x8 C:\Users\apsyvert\AppData\Local\Temp\cc8fH946.ltrans0.ltrans.o
                0x00033b30                MINLOG
 .rodata.MAXNUM
                0x00033b38        0x8 C:\Users\apsyvert\AppData\Local\Temp\cc8fH946.ltrans0.ltrans.o
                0x00033b38                MAXNUM
 .rodata.PI     0x00033b40        0x8 C:\Users\apsyvert\AppData\Local\Temp\cc8fH946.ltrans0.ltrans.o
                0x00033b40                PI
 .rodata.PIO2   0x00033b48        0x8 C:\Users\apsyvert\AppData\Local\Temp\cc8fH946.ltrans0.ltrans.o
                0x00033b48                PIO2
 .rodata.PIO4   0x00033b50        0x8 C:\Users\apsyvert\AppData\Local\Temp\cc8fH946.ltrans0.ltrans.o
                0x00033b50                PIO4
 .rodata.SQRT2  0x00033b58        0x8 C:\Users\apsyvert\AppData\Local\Temp\cc8fH946.ltrans0.ltrans.o
                0x00033b58                SQRT2
 .rodata.LOG2E  0x00033b60        0x8 C:\Users\apsyvert\AppData\Local\Temp\cc8fH946.ltrans0.ltrans.o
                0x00033b60                LOG2E
 .rodata.INFINITY
                0x00033b68        0x8 C:\Users\apsyvert\AppData\Local\Temp\cc8fH946.ltrans0.ltrans.o
                0x00033b68                INFINITY
 .rodata.NAN    0x00033b70        0x8 C:\Users\apsyvert\AppData\Local\Temp\cc8fH946.ltrans0.ltrans.o
                0x00033b70                NAN
 .rodata.NEGZERO
                0x00033b78        0x8 C:\Users\apsyvert\AppData\Local\Temp\cc8fH946.ltrans0.ltrans.o
                0x00033b78                NEGZERO
 .rodata.P.9928
                0x00033b80       0x18 C:\Users\apsyvert\AppData\Local\Temp\cc8fH946.ltrans0.ltrans.o
                0x00033b80                P.9928
 .rodata.Q.9930
                0x00033b98       0x20 C:\Users\apsyvert\AppData\Local\Temp\cc8fH946.ltrans0.ltrans.o
                0x00033b98                Q.9930
 .rodata.P.10054
                0x00033bb8       0x30 C:\Users\apsyvert\AppData\Local\Temp\cc8fH946.ltrans0.ltrans.o
                0x00033bb8                P.10054
 .rodata.Q.10055
                0x00033be8       0x28 C:\Users\apsyvert\AppData\Local\Temp\cc8fH946.ltrans0.ltrans.o
                0x00033be8                Q.10055
 .rodata.R.10051
                0x00033c10       0x18 C:\Users\apsyvert\AppData\Local\Temp\cc8fH946.ltrans0.ltrans.o
                0x00033c10                R.10051
 .rodata.S.10053
                0x00033c28       0x18 C:\Users\apsyvert\AppData\Local\Temp\cc8fH946.ltrans0.ltrans.o
                0x00033c28                S.10053
 .rodata.sincof.10166
                0x00033c40       0x30 C:\Users\apsyvert\AppData\Local\Temp\cc8fH946.ltrans0.ltrans.o
                0x00033c40                sincof.10166
 .rodata.coscof.10164
                0x00033c70       0x30 C:\Users\apsyvert\AppData\Local\Temp\cc8fH946.ltrans0.ltrans.o
                0x00033c70                coscof.10164
 .rodata.initRTC.12818
                0x00033ca0        0x4 C:\Users\apsyvert\AppData\Local\Temp\cc8fH946.ltrans0.ltrans.o
                0x00033ca0                initRTC.12818
 .rodata.pinInfo
                0x00033ca4      0x300 C:\Users\apsyvert\AppData\Local\Temp\cc8fH946.ltrans0.ltrans.o
                0x00033ca4                pinInfo
 .rodata.DAYS   0x00033fa4       0x1c C:\Users\apsyvert\AppData\Local\Temp\cc8fH946.ltrans0.ltrans.o
                0x00033fa4                DAYS
 .rodata.LPDAYS
                0x00033fc0       0x1c C:\Users\apsyvert\AppData\Local\Temp\cc8fH946.ltrans0.ltrans.o
                0x00033fc0                LPDAYS
 .rodata.YDAYS  0x00033fdc        0x8 C:\Users\apsyvert\AppData\Local\Temp\cc8fH946.ltrans0.ltrans.o
                0x00033fdc                YDAYS
 .rodata        0x00033fe4      0x5ec C:\Users\apsyvert\AppData\Local\Temp\cc8fH946.ltrans1.ltrans.o
 .rodata        0x000345d0      0x384 C:\Users\apsyvert\AppData\Local\Temp\cc8fH946.ltrans2.ltrans.o
 .rodata        0x00034954      0x3e0 C:\Users\apsyvert\AppData\Local\Temp\cc8fH946.ltrans3.ltrans.o
 .rodata        0x00034d34      0x428 C:\Users\apsyvert\AppData\Local\Temp\cc8fH946.ltrans4.ltrans.o
 .rodata        0x0003515c      0x488 C:\Users\apsyvert\AppData\Local\Temp\cc8fH946.ltrans5.ltrans.o
 .rodata        0x000355e4      0x360 C:\Users\apsyvert\AppData\Local\Temp\cc8fH946.ltrans6.ltrans.o
 .rodata        0x00035944      0x1c0 C:\Users\apsyvert\AppData\Local\Temp\cc8fH946.ltrans7.ltrans.o
 .rodata        0x00035b04       0x40 C:\Users\apsyvert\AppData\Local\Temp\cc8fH946.ltrans9.ltrans.o
 .rodata        0x00035b44       0x80 C:\Users\apsyvert\AppData\Local\Temp\cc8fH946.ltrans10.ltrans.o
 .rodata        0x00035bc4       0x48 C:\Users\apsyvert\AppData\Local\Temp\cc8fH946.ltrans12.ltrans.o
 .rodata        0x00035c0c      0x1e0 C:\Users\apsyvert\AppData\Local\Temp\cc8fH946.ltrans13.ltrans.o
 .rodata        0x00035dec      0x2a0 C:\Users\apsyvert\AppData\Local\Temp\cc8fH946.ltrans14.ltrans.o
 .rodata        0x0003608c      0x540 C:\Users\apsyvert\AppData\Local\Temp\cc8fH946.ltrans15.ltrans.o
 .rodata        0x000365cc      0x28c C:\Users\apsyvert\AppData\Local\Temp\cc8fH946.ltrans16.ltrans.o
 .rodata        0x00036858      0x288 C:\Users\apsyvert\AppData\Local\Temp\cc8fH946.ltrans17.ltrans.o
 .rodata        0x00036ae0      0x20c C:\Users\apsyvert\AppData\Local\Temp\cc8fH946.ltrans18.ltrans.o
 .rodata        0x00036cec      0x3ac C:\Users\apsyvert\AppData\Local\Temp\cc8fH946.ltrans19.ltrans.o
 .rodata        0x00037098      0x364 C:\Users\apsyvert\AppData\Local\Temp\cc8fH946.ltrans20.ltrans.o
 .rodata        0x000373fc      0x328 C:\Users\apsyvert\AppData\Local\Temp\cc8fH946.ltrans21.ltrans.o
 .rodata        0x00037724      0x2c4 C:\Users\apsyvert\AppData\Local\Temp\cc8fH946.ltrans22.ltrans.o
 .rodata        0x000379e8      0x124 C:\Users\apsyvert\AppData\Local\Temp\cc8fH946.ltrans23.ltrans.o
 .rodata        0x00037b0c      0x5f8 C:\Users\apsyvert\AppData\Local\Temp\cc8fH946.ltrans24.ltrans.o
 .rodata        0x00038104      0x14c C:\Users\apsyvert\AppData\Local\Temp\cc8fH946.ltrans25.ltrans.o
 .rodata        0x00038250      0x274 C:\Users\apsyvert\AppData\Local\Temp\cc8fH946.ltrans26.ltrans.o
 .rodata        0x000384c4      0x1bc C:\Users\apsyvert\AppData\Local\Temp\cc8fH946.ltrans27.ltrans.o
 .rodata        0x00038680      0x3ac C:\Users\apsyvert\AppData\Local\Temp\cc8fH946.ltrans28.ltrans.o
 .rodata        0x00038a2c      0x1e4 C:\Users\apsyvert\AppData\Local\Temp\cc8fH946.ltrans29.ltrans.o
 .rodata        0x00038c10      0x3a0 C:\Users\apsyvert\AppData\Local\Temp\cc8fH946.ltrans30.ltrans.o
 *(.eh_frame*)
 .eh_frame      0x00038fb0        0x0 c:/siliconlabs/simplicitystudio/v3/developer/toolchains/gnu_arm/4.8_2013q4/bin/../lib/gcc/arm-none-eabi/4.8.3/armv7-m/crtbegin.o
 .eh_frame      0x00038fb0        0x4 c:/siliconlabs/simplicitystudio/v3/developer/toolchains/gnu_arm/4.8_2013q4/bin/../lib/gcc/arm-none-eabi/4.8.3/armv7-m/crtend.o

.glue_7         0x00038fb4        0x0
 .glue_7        0x00000000        0x0 linker stubs

.glue_7t        0x00038fb4        0x0
 .glue_7t       0x00000000        0x0 linker stubs

.vfp11_veneer   0x00038fb4        0x0
 .vfp11_veneer  0x00000000        0x0 linker stubs

.v4_bx          0x00038fb4        0x0
 .v4_bx         0x00000000        0x0 linker stubs

.iplt           0x00038fb4        0x0
 .iplt          0x00000000        0x0 c:/siliconlabs/simplicitystudio/v3/developer/toolchains/gnu_arm/4.8_2013q4/bin/../lib/gcc/arm-none-eabi/4.8.3/armv7-m/crtbegin.o

.ARM.extab
 *(.ARM.extab* .gnu.linkonce.armextab.*)
                0x00038fb4                __exidx_start = .

.ARM.exidx      0x00038fb4        0x8
 *(.ARM.exidx* .gnu.linkonce.armexidx.*)
 .ARM.exidx     0x00038fb4        0x8 c:/siliconlabs/simplicitystudio/v3/developer/toolchains/gnu_arm/4.8_2013q4/bin/../lib/gcc/arm-none-eabi/4.8.3/../../../../arm-none-eabi/lib/armv7-m/crt0.o
 .ARM.exidx     0x00038fbc        0x0 c:/siliconlabs/simplicitystudio/v3/developer/toolchains/gnu_arm/4.8_2013q4/bin/../lib/gcc/arm-none-eabi/4.8.3/armv7-m\libgcc.a(_divdi3.o)
                                  0x8 (size before relaxing)
 .ARM.exidx     0x00038fbc        0x0 c:/siliconlabs/simplicitystudio/v3/developer/toolchains/gnu_arm/4.8_2013q4/bin/../lib/gcc/arm-none-eabi/4.8.3/armv7-m\libgcc.a(_udivdi3.o)
                                  0x8 (size before relaxing)
                0x00038fbc                __exidx_end = .
                0x00038fbc                __etext = .

.rel.dyn        0x00038fbc        0x0
 .rel.iplt      0x00000000        0x0 c:/siliconlabs/simplicitystudio/v3/developer/toolchains/gnu_arm/4.8_2013q4/bin/../lib/gcc/arm-none-eabi/4.8.3/armv7-m/crtbegin.o

.data           0x20000000      0x9d0 load address 0x00038fbc
                0x20000000                __data_start__ = .
 *(vtable)
 *(.data*)
 .data.impure_data
                0x20000000      0x428 c:/siliconlabs/simplicitystudio/v3/developer/toolchains/gnu_arm/4.8_2013q4/bin/../lib/gcc/arm-none-eabi/4.8.3/../../../../arm-none-eabi/lib/armv7-m\libc.a(lib_a-impure.o)
 .data._impure_ptr
                0x20000428        0x4 c:/siliconlabs/simplicitystudio/v3/developer/toolchains/gnu_arm/4.8_2013q4/bin/../lib/gcc/arm-none-eabi/4.8.3/../../../../arm-none-eabi/lib/armv7-m\libc.a(lib_a-impure.o)
                0x20000428                _impure_ptr
 .data.jsVarsSize
                0x2000042c        0x4 C:\Users\apsyvert\AppData\Local\Temp\cc8fH946.ltrans0.ltrans.o
                0x2000042c                jsVarsSize
 .data.consoleDevice
                0x20000430        0x1 C:\Users\apsyvert\AppData\Local\Temp\cc8fH946.ltrans0.ltrans.o
                0x20000430                consoleDevice
 .data.pinBusyIndicator
                0x20000431        0x1 C:\Users\apsyvert\AppData\Local\Temp\cc8fH946.ltrans0.ltrans.o
                0x20000431                pinBusyIndicator
 .data.pinSleepIndicator
                0x20000432        0x1 C:\Users\apsyvert\AppData\Local\Temp\cc8fH946.ltrans0.ltrans.o
                0x20000432                pinSleepIndicator
 *fill*         0x20000433        0x1 
 .data.inputLineLength
                0x20000434        0x4 C:\Users\apsyvert\AppData\Local\Temp\cc8fH946.ltrans0.ltrans.o
                0x20000434                inputLineLength
 .data.bmask.9958
                0x20000438       0x24 C:\Users\apsyvert\AppData\Local\Temp\cc8fH946.ltrans0.ltrans.o
                0x20000438                bmask.9958
 .data.fname.10049
                0x2000045c        0x4 C:\Users\apsyvert\AppData\Local\Temp\cc8fH946.ltrans0.ltrans.o
                0x2000045c                fname.10049
 .data.hasSystemSlept
                0x20000460        0x1 C:\Users\apsyvert\AppData\Local\Temp\cc8fH946.ltrans0.ltrans.o
                0x20000460                hasSystemSlept
 *fill*         0x20000461        0x3 
 .data.usart0.11006
                0x20000464        0x4 C:\Users\apsyvert\AppData\Local\Temp\cc8fH946.ltrans0.ltrans.o
                0x20000464                usart0.11006
 .data.usart1.10961
                0x20000468        0x4 C:\Users\apsyvert\AppData\Local\Temp\cc8fH946.ltrans0.ltrans.o
                0x20000468                usart1.10961
 .data.usart2.11007
                0x2000046c        0x4 C:\Users\apsyvert\AppData\Local\Temp\cc8fH946.ltrans0.ltrans.o
                0x2000046c                usart2.11007
 .data.uart0.10962
                0x20000470        0x4 C:\Users\apsyvert\AppData\Local\Temp\cc8fH946.ltrans0.ltrans.o
                0x20000470                uart0.10962
 .data.uart1.11008
                0x20000474        0x4 C:\Users\apsyvert\AppData\Local\Temp\cc8fH946.ltrans0.ltrans.o
                0x20000474                uart1.11008
 .data.uartInit.10134.11009
                0x20000478       0x18 C:\Users\apsyvert\AppData\Local\Temp\cc8fH946.ltrans0.ltrans.o
                0x20000478                uartInit.10134.11009
 .data.SystemHFXOClock.11278
                0x20000490        0x4 C:\Users\apsyvert\AppData\Local\Temp\cc8fH946.ltrans0.ltrans.o
                0x20000490                SystemHFXOClock.11278
 .data.SystemLFXOClock.11277
                0x20000494        0x4 C:\Users\apsyvert\AppData\Local\Temp\cc8fH946.ltrans0.ltrans.o
                0x20000494                SystemLFXOClock.11277
 .data.MONTHNAMES
                0x20000498        0x4 C:\Users\apsyvert\AppData\Local\Temp\cc8fH946.ltrans0.ltrans.o
                0x20000498                MONTHNAMES
 .data.DAYNAMES
                0x2000049c        0x4 C:\Users\apsyvert\AppData\Local\Temp\cc8fH946.ltrans0.ltrans.o
                0x2000049c                DAYNAMES
 .data.JSON_LIMIT_TEXT
                0x200004a0        0x4 C:\Users\apsyvert\AppData\Local\Temp\cc8fH946.ltrans0.ltrans.o
                0x200004a0                JSON_LIMIT_TEXT
 .data.exportPtrs
                0x200004a4       0x50 C:\Users\apsyvert\AppData\Local\Temp\cc8fH946.ltrans0.ltrans.o
                0x200004a4                exportPtrs
 .data.exportNames
                0x200004f4        0x4 C:\Users\apsyvert\AppData\Local\Temp\cc8fH946.ltrans0.ltrans.o
                0x200004f4                exportNames
                0x200004f8                . = ALIGN (0x4)
 *(.ram)
 .ram           0x200004f8      0x498 C:\Users\apsyvert\AppData\Local\Temp\cc8fH946.ltrans8.ltrans.o
                0x20000838                MSC_ErasePage
                0x200008f0                MSC_WriteWord
 .ram.__stub    0x20000990       0x30 linker stubs
                0x200009c0                . = ALIGN (0x4)
                0x200009c0                PROVIDE (__preinit_array_start, .)
 *(.preinit_array)
                0x200009c0                PROVIDE (__preinit_array_end, .)
                0x200009c0                . = ALIGN (0x4)
                0x200009c0                PROVIDE (__init_array_start, .)
 *(SORT(.init_array.*))
 .init_array.00000
                0x200009c0        0x4 c:/siliconlabs/simplicitystudio/v3/developer/toolchains/gnu_arm/4.8_2013q4/bin/../lib/gcc/arm-none-eabi/4.8.3/../../../../arm-none-eabi/lib/armv7-m\libc.a(lib_a-__call_atexit.o)
 *(.init_array)
 .init_array    0x200009c4        0x4 c:/siliconlabs/simplicitystudio/v3/developer/toolchains/gnu_arm/4.8_2013q4/bin/../lib/gcc/arm-none-eabi/4.8.3/armv7-m/crtbegin.o
                0x200009c8                PROVIDE (__init_array_end, .)
                0x200009c8                . = ALIGN (0x4)
                0x200009c8                PROVIDE (__fini_array_start, .)
 *(SORT(.fini_array.*))
 *(.fini_array)
 .fini_array    0x200009c8        0x4 c:/siliconlabs/simplicitystudio/v3/developer/toolchains/gnu_arm/4.8_2013q4/bin/../lib/gcc/arm-none-eabi/4.8.3/armv7-m/crtbegin.o
                0x200009cc                PROVIDE (__fini_array_end, .)
 *(.jcr*)
 .jcr           0x200009cc        0x0 c:/siliconlabs/simplicitystudio/v3/developer/toolchains/gnu_arm/4.8_2013q4/bin/../lib/gcc/arm-none-eabi/4.8.3/armv7-m/crtbegin.o
 .jcr           0x200009cc        0x4 c:/siliconlabs/simplicitystudio/v3/developer/toolchains/gnu_arm/4.8_2013q4/bin/../lib/gcc/arm-none-eabi/4.8.3/armv7-m/crtend.o
                0x200009d0                . = ALIGN (0x4)
                0x200009d0                __data_end__ = .

.igot.plt       0x200009d0        0x0 load address 0x0003998c
 .igot.plt      0x00000000        0x0 c:/siliconlabs/simplicitystudio/v3/developer/toolchains/gnu_arm/4.8_2013q4/bin/../lib/gcc/arm-none-eabi/4.8.3/armv7-m/crtbegin.o

.bss            0x200009d0     0x72bc load address 0x00039990
                0x200009d0                . = ALIGN (0x4)
                0x200009d0                __bss_start__ = .
 *(.bss*)
 .bss           0x200009d0       0x1c c:/siliconlabs/simplicitystudio/v3/developer/toolchains/gnu_arm/4.8_2013q4/bin/../lib/gcc/arm-none-eabi/4.8.3/armv7-m/crtbegin.o
 .bss.jsVars    0x200009ec     0x6b80 C:\Users\apsyvert\AppData\Local\Temp\cc8fH946.ltrans0.ltrans.o
                0x200009ec                jsVars
 .bss.jsVarFirstEmpty
                0x2000756c        0x2 C:\Users\apsyvert\AppData\Local\Temp\cc8fH946.ltrans0.ltrans.o
                0x2000756c                jsVarFirstEmpty
 .bss.jsErrorFlags
                0x2000756e        0x1 C:\Users\apsyvert\AppData\Local\Temp\cc8fH946.ltrans0.ltrans.o
                0x2000756e                jsErrorFlags
 *fill*         0x2000756f        0x1 
 .bss.buf.8706.6172
                0x20007570        0x8 C:\Users\apsyvert\AppData\Local\Temp\cc8fH946.ltrans0.ltrans.o
                0x20007570                buf.8706.6172
 .bss.inAssertFail.8767.6173
                0x20007578        0x1 C:\Users\apsyvert\AppData\Local\Temp\cc8fH946.ltrans0.ltrans.o
                0x20007578                inAssertFail.8767.6173
 *fill*         0x20007579        0x3 
 .bss.execInfo  0x2000757c       0x38 C:\Users\apsyvert\AppData\Local\Temp\cc8fH946.ltrans0.ltrans.o
                0x2000757c                execInfo
 .bss.jshPinStateIsManual
                0x200075b4        0xc C:\Users\apsyvert\AppData\Local\Temp\cc8fH946.ltrans0.ltrans.o
                0x200075b4                jshPinStateIsManual
 .bss.events    0x200075c0        0x4 C:\Users\apsyvert\AppData\Local\Temp\cc8fH946.ltrans0.ltrans.o
                0x200075c0                events
 .bss.timerArray
                0x200075c4        0x2 C:\Users\apsyvert\AppData\Local\Temp\cc8fH946.ltrans0.ltrans.o
                0x200075c4                timerArray
 .bss.watchArray
                0x200075c6        0x2 C:\Users\apsyvert\AppData\Local\Temp\cc8fH946.ltrans0.ltrans.o
                0x200075c6                watchArray
 .bss.jsiStatus
                0x200075c8        0x2 C:\Users\apsyvert\AppData\Local\Temp\cc8fH946.ltrans0.ltrans.o
                0x200075c8                jsiStatus
 *fill*         0x200075ca        0x6 
 .bss.jsiLastIdleTime
                0x200075d0        0x8 C:\Users\apsyvert\AppData\Local\Temp\cc8fH946.ltrans0.ltrans.o
                0x200075d0                jsiLastIdleTime
 .bss.jsiTimeSinceCtrlC
                0x200075d8        0x4 C:\Users\apsyvert\AppData\Local\Temp\cc8fH946.ltrans0.ltrans.o
                0x200075d8                jsiTimeSinceCtrlC
 .bss.inputLine
                0x200075dc        0x4 C:\Users\apsyvert\AppData\Local\Temp\cc8fH946.ltrans0.ltrans.o
                0x200075dc                inputLine
 .bss.inputLineIterator
                0x200075e0       0x14 C:\Users\apsyvert\AppData\Local\Temp\cc8fH946.ltrans0.ltrans.o
                0x200075e0                inputLineIterator
 .bss.inputLineRemoved
                0x200075f4        0x1 C:\Users\apsyvert\AppData\Local\Temp\cc8fH946.ltrans0.ltrans.o
                0x200075f4                inputLineRemoved
 *fill*         0x200075f5        0x3 
 .bss.inputCursorPos
                0x200075f8        0x4 C:\Users\apsyvert\AppData\Local\Temp\cc8fH946.ltrans0.ltrans.o
                0x200075f8                inputCursorPos
 .bss.inputState
                0x200075fc        0x1 C:\Users\apsyvert\AppData\Local\Temp\cc8fH946.ltrans0.ltrans.o
                0x200075fc                inputState
 *fill*         0x200075fd        0x1 
 .bss.inputStateNumber
                0x200075fe        0x2 C:\Users\apsyvert\AppData\Local\Temp\cc8fH946.ltrans0.ltrans.o
                0x200075fe                inputStateNumber
 .bss.jsiLineNumberOffset
                0x20007600        0x2 C:\Users\apsyvert\AppData\Local\Temp\cc8fH946.ltrans0.ltrans.o
                0x20007600                jsiLineNumberOffset
 .bss.hasUsedHistory
                0x20007602        0x1 C:\Users\apsyvert\AppData\Local\Temp\cc8fH946.ltrans0.ltrans.o
                0x20007602                hasUsedHistory
 .bss.loopsIdling
                0x20007603        0x1 C:\Users\apsyvert\AppData\Local\Temp\cc8fH946.ltrans0.ltrans.o
                0x20007603                loopsIdling
 .bss.interruptedDuringEvent
                0x20007604        0x1 C:\Users\apsyvert\AppData\Local\Temp\cc8fH946.ltrans0.ltrans.o
                0x20007604                interruptedDuringEvent
 .bss.business.9098.7758
                0x20007605        0x1 C:\Users\apsyvert\AppData\Local\Temp\cc8fH946.ltrans0.ltrans.o
                0x20007605                business.9098.7758
 *fill*         0x20007606        0x2 
 .bss.jshEventCallbacks
                0x20007608       0x40 C:\Users\apsyvert\AppData\Local\Temp\cc8fH946.ltrans0.ltrans.o
                0x20007608                jshEventCallbacks
 .bss.txBuffer  0x20007648      0x100 C:\Users\apsyvert\AppData\Local\Temp\cc8fH946.ltrans0.ltrans.o
                0x20007648                txBuffer
 .bss.txHead    0x20007748        0x1 C:\Users\apsyvert\AppData\Local\Temp\cc8fH946.ltrans0.ltrans.o
                0x20007748                txHead
 .bss.txTail    0x20007749        0x1 C:\Users\apsyvert\AppData\Local\Temp\cc8fH946.ltrans0.ltrans.o
                0x20007749                txTail
 *fill*         0x2000774a        0x2 
 .bss.jshSerialDeviceStates
                0x2000774c        0x8 C:\Users\apsyvert\AppData\Local\Temp\cc8fH946.ltrans0.ltrans.o
                0x2000774c                jshSerialDeviceStates
 .bss.ioBuffer  0x20007754      0x280 C:\Users\apsyvert\AppData\Local\Temp\cc8fH946.ltrans0.ltrans.o
                0x20007754                ioBuffer
 .bss.ioHead    0x200079d4        0x1 C:\Users\apsyvert\AppData\Local\Temp\cc8fH946.ltrans0.ltrans.o
                0x200079d4                ioHead
 .bss.ioTail    0x200079d5        0x1 C:\Users\apsyvert\AppData\Local\Temp\cc8fH946.ltrans0.ltrans.o
                0x200079d5                ioTail
 *fill*         0x200079d6        0x2 
 .bss.utilTimerTasks
                0x200079d8      0x1d0 C:\Users\apsyvert\AppData\Local\Temp\cc8fH946.ltrans0.ltrans.o
                0x200079d8                utilTimerTasks
 .bss.utilTimerTasksHead
                0x20007ba8        0x1 C:\Users\apsyvert\AppData\Local\Temp\cc8fH946.ltrans0.ltrans.o
                0x20007ba8                utilTimerTasksHead
 .bss.utilTimerTasksTail
                0x20007ba9        0x1 C:\Users\apsyvert\AppData\Local\Temp\cc8fH946.ltrans0.ltrans.o
                0x20007ba9                utilTimerTasksTail
 .bss.utilTimerOn
                0x20007baa        0x1 C:\Users\apsyvert\AppData\Local\Temp\cc8fH946.ltrans0.ltrans.o
                0x20007baa                utilTimerOn
 .bss.utilTimerInIRQ
                0x20007bab        0x1 C:\Users\apsyvert\AppData\Local\Temp\cc8fH946.ltrans0.ltrans.o
                0x20007bab                utilTimerInIRQ
 .bss.inf.8677.8458
                0x20007bac        0xc C:\Users\apsyvert\AppData\Local\Temp\cc8fH946.ltrans0.ltrans.o
                0x20007bac                inf.8677.8458
 .bss.ticksSinceStart
                0x20007bb8        0x4 C:\Users\apsyvert\AppData\Local\Temp\cc8fH946.ltrans0.ltrans.o
                0x20007bb8                ticksSinceStart
 .bss.averageSysTickTime
                0x20007bbc        0x4 C:\Users\apsyvert\AppData\Local\Temp\cc8fH946.ltrans0.ltrans.o
                0x20007bbc                averageSysTickTime
 .bss.smoothAverageSysTickTime
                0x20007bc0        0x4 C:\Users\apsyvert\AppData\Local\Temp\cc8fH946.ltrans0.ltrans.o
                0x20007bc0                smoothAverageSysTickTime
 *fill*         0x20007bc4        0x4 
 .bss.lastSysTickTime
                0x20007bc8        0x8 C:\Users\apsyvert\AppData\Local\Temp\cc8fH946.ltrans0.ltrans.o
                0x20007bc8                lastSysTickTime
 .bss.smoothLastSysTickTime
                0x20007bd0        0x8 C:\Users\apsyvert\AppData\Local\Temp\cc8fH946.ltrans0.ltrans.o
                0x20007bd0                smoothLastSysTickTime
 .bss.sleepTimer
                0x20007bd8        0x4 C:\Users\apsyvert\AppData\Local\Temp\cc8fH946.ltrans0.ltrans.o
                0x20007bd8                sleepTimer
 *fill*         0x20007bdc        0x4 
 .bss.utilTicks
                0x20007be0        0x8 C:\Users\apsyvert\AppData\Local\Temp\cc8fH946.ltrans0.ltrans.o
                0x20007be0                utilTicks
 .bss.delayTicks
                0x20007be8        0x8 C:\Users\apsyvert\AppData\Local\Temp\cc8fH946.ltrans0.ltrans.o
                0x20007be8                delayTicks
 .bss.watchedPins
                0x20007bf0       0x10 C:\Users\apsyvert\AppData\Local\Temp\cc8fH946.ltrans0.ltrans.o
                0x20007bf0                watchedPins
 .bss.SystemCoreClock
                0x20007c00        0x4 C:\Users\apsyvert\AppData\Local\Temp\cc8fH946.ltrans0.ltrans.o
                0x20007c00                SystemCoreClock
 .bss.cmuStatus.11943
                0x20007c04        0x4 C:\Users\apsyvert\AppData\Local\Temp\cc8fH946.ltrans0.ltrans.o
                0x20007c04                cmuStatus.11943
 .bss.INT_LockCnt
                0x20007c08        0x4 C:\Users\apsyvert\AppData\Local\Temp\cc8fH946.ltrans0.ltrans.o
                0x20007c08                INT_LockCnt
 .bss.gpioCallbacks.12617
                0x20007c0c       0x40 C:\Users\apsyvert\AppData\Local\Temp\cc8fH946.ltrans0.ltrans.o
                0x20007c0c                gpioCallbacks.12617
 *fill*         0x20007c4c        0x4 
 .bss.timer.12804
                0x20007c50       0x28 C:\Users\apsyvert\AppData\Local\Temp\cc8fH946.ltrans0.ltrans.o
                0x20007c50                timer.12804
 .bss.lastStart.12824
                0x20007c78        0x4 C:\Users\apsyvert\AppData\Local\Temp\cc8fH946.ltrans0.ltrans.o
                0x20007c78                lastStart.12824
 .bss.startTimerNestingLevel.12821
                0x20007c7c        0x4 C:\Users\apsyvert\AppData\Local\Temp\cc8fH946.ltrans0.ltrans.o
                0x20007c7c                startTimerNestingLevel.12821
 .bss.inTimerIRQ.12819
                0x20007c80        0x1 C:\Users\apsyvert\AppData\Local\Temp\cc8fH946.ltrans0.ltrans.o
                0x20007c80                inTimerIRQ.12819
 .bss.rtcRunning.12820
                0x20007c81        0x1 C:\Users\apsyvert\AppData\Local\Temp\cc8fH946.ltrans0.ltrans.o
                0x20007c81                rtcRunning.12820
 .bss.rtcdrvIsInitialized.12817
                0x20007c82        0x1 C:\Users\apsyvert\AppData\Local\Temp\cc8fH946.ltrans0.ltrans.o
                0x20007c82                rtcdrvIsInitialized.12817
 *fill*         0x20007c83        0x1 
 .bss.wallClockOverflowCnt.12822
                0x20007c84        0x4 C:\Users\apsyvert\AppData\Local\Temp\cc8fH946.ltrans0.ltrans.o
                0x20007c84                wallClockOverflowCnt.12822
 .bss.wallClockTimeBase.12823
                0x20007c88        0x4 C:\Users\apsyvert\AppData\Local\Temp\cc8fH946.ltrans0.ltrans.o
                0x20007c88                wallClockTimeBase.12823
 *(COMMON)
                0x20007c8c                . = ALIGN (0x4)
                0x20007c8c                __bss_end__ = .

.heap           0x20007c90      0xc00
                0x20007c90                __HeapBase = .
                0x20007c90                __end__ = .
                0x20007c90                end = __end__
                0x20007c90                _end = __end__
 *(.heap*)
 .heap          0x20007c90      0xc00 C:\Users\apsyvert\AppData\Local\Temp\cc8fH946.ltrans0.ltrans.o
                0x20008890                __HeapLimit = .

.stack_dummy    0x20008890      0x400
 *(.stack*)
 .stack         0x20008890      0x400 C:\Users\apsyvert\AppData\Local\Temp\cc8fH946.ltrans0.ltrans.o
                0x20020000                __StackTop = (ORIGIN (RAM) + 0x20000)
                0x2001fc00                __StackLimit = (__StackTop - SIZEOF (.stack_dummy))
                0x20020000                PROVIDE (__stack, __StackTop)
                0x00000001                ASSERT ((__StackLimit >= __HeapLimit), region RAM overflowed with stack)
                0x00000001                ASSERT ((0x100000 >= (__etext + SIZEOF (.data))), FLASH memory overflowed !)
OUTPUT(espruino_efm32ggstk.elf elf32-littlearm)

.ARM.attributes
                0x00000000       0x29
 .ARM.attributes
                0x00000000       0x1d c:/siliconlabs/simplicitystudio/v3/developer/toolchains/gnu_arm/4.8_2013q4/bin/../lib/gcc/arm-none-eabi/4.8.3/armv7-m/crti.o
 .ARM.attributes
                0x0000001d       0x2d c:/siliconlabs/simplicitystudio/v3/developer/toolchains/gnu_arm/4.8_2013q4/bin/../lib/gcc/arm-none-eabi/4.8.3/armv7-m/crtbegin.o
 .ARM.attributes
                0x0000004a       0x1b c:/siliconlabs/simplicitystudio/v3/developer/toolchains/gnu_arm/4.8_2013q4/bin/../lib/gcc/arm-none-eabi/4.8.3/../../../../arm-none-eabi/lib/armv7-m/crt0.o
 .ARM.attributes
                0x00000065       0x2d c:/siliconlabs/simplicitystudio/v3/developer/toolchains/gnu_arm/4.8_2013q4/bin/../lib/gcc/arm-none-eabi/4.8.3/../../../../arm-none-eabi/lib/armv7-m\libc.a(lib_a-exit.o)
 .ARM.attributes
                0x00000092       0x2d c:/siliconlabs/simplicitystudio/v3/developer/toolchains/gnu_arm/4.8_2013q4/bin/../lib/gcc/arm-none-eabi/4.8.3/../../../../arm-none-eabi/lib/armv7-m\libc.a(lib_a-impure.o)
 .ARM.attributes
                0x000000bf       0x2d c:/siliconlabs/simplicitystudio/v3/developer/toolchains/gnu_arm/4.8_2013q4/bin/../lib/gcc/arm-none-eabi/4.8.3/../../../../arm-none-eabi/lib/armv7-m\libc.a(lib_a-init.o)
 .ARM.attributes
                0x000000ec       0x2d c:/siliconlabs/simplicitystudio/v3/developer/toolchains/gnu_arm/4.8_2013q4/bin/../lib/gcc/arm-none-eabi/4.8.3/../../../../arm-none-eabi/lib/armv7-m\libc.a(lib_a-memset.o)
 .ARM.attributes
                0x00000119       0x2d c:/siliconlabs/simplicitystudio/v3/developer/toolchains/gnu_arm/4.8_2013q4/bin/../lib/gcc/arm-none-eabi/4.8.3/../../../../arm-none-eabi/lib/armv7-m\libc.a(lib_a-__call_atexit.o)
 .ARM.attributes
                0x00000146       0x2d c:/siliconlabs/simplicitystudio/v3/developer/toolchains/gnu_arm/4.8_2013q4/bin/../lib/gcc/arm-none-eabi/4.8.3/../../../../arm-none-eabi/lib/armv7-m\libc.a(lib_a-atexit.o)
 .ARM.attributes
                0x00000173       0x2d c:/siliconlabs/simplicitystudio/v3/developer/toolchains/gnu_arm/4.8_2013q4/bin/../lib/gcc/arm-none-eabi/4.8.3/../../../../arm-none-eabi/lib/armv7-m\libc.a(lib_a-fini.o)
 .ARM.attributes
                0x000001a0       0x2d c:/siliconlabs/simplicitystudio/v3/developer/toolchains/gnu_arm/4.8_2013q4/bin/../lib/gcc/arm-none-eabi/4.8.3/../../../../arm-none-eabi/lib/armv7-m\libc.a(lib_a-__atexit.o)
 .ARM.attributes
                0x000001cd       0x2d c:/siliconlabs/simplicitystudio/v3/developer/toolchains/gnu_arm/4.8_2013q4/bin/../lib/gcc/arm-none-eabi/4.8.3/../../../../arm-none-eabi/lib/armv7-m\libnosys.a(_exit.o)
 .ARM.attributes
                0x000001fa       0x31 C:\Users\apsyvert\AppData\Local\Temp\cc8fH946.ltrans0.ltrans.o
 .ARM.attributes
                0x0000022b       0x31 C:\Users\apsyvert\AppData\Local\Temp\cc8fH946.ltrans1.ltrans.o
 .ARM.attributes
                0x0000025c       0x31 C:\Users\apsyvert\AppData\Local\Temp\cc8fH946.ltrans2.ltrans.o
 .ARM.attributes
                0x0000028d       0x31 C:\Users\apsyvert\AppData\Local\Temp\cc8fH946.ltrans3.ltrans.o
 .ARM.attributes
                0x000002be       0x31 C:\Users\apsyvert\AppData\Local\Temp\cc8fH946.ltrans4.ltrans.o
 .ARM.attributes
                0x000002ef       0x31 C:\Users\apsyvert\AppData\Local\Temp\cc8fH946.ltrans5.ltrans.o
 .ARM.attributes
                0x00000320       0x31 C:\Users\apsyvert\AppData\Local\Temp\cc8fH946.ltrans6.ltrans.o
 .ARM.attributes
                0x00000351       0x31 C:\Users\apsyvert\AppData\Local\Temp\cc8fH946.ltrans7.ltrans.o
 .ARM.attributes
                0x00000382       0x31 C:\Users\apsyvert\AppData\Local\Temp\cc8fH946.ltrans8.ltrans.o
 .ARM.attributes
                0x000003b3       0x31 C:\Users\apsyvert\AppData\Local\Temp\cc8fH946.ltrans9.ltrans.o
 .ARM.attributes
                0x000003e4       0x31 C:\Users\apsyvert\AppData\Local\Temp\cc8fH946.ltrans10.ltrans.o
 .ARM.attributes
                0x00000415       0x31 C:\Users\apsyvert\AppData\Local\Temp\cc8fH946.ltrans11.ltrans.o
 .ARM.attributes
                0x00000446       0x31 C:\Users\apsyvert\AppData\Local\Temp\cc8fH946.ltrans12.ltrans.o
 .ARM.attributes
                0x00000477       0x31 C:\Users\apsyvert\AppData\Local\Temp\cc8fH946.ltrans13.ltrans.o
 .ARM.attributes
                0x000004a8       0x31 C:\Users\apsyvert\AppData\Local\Temp\cc8fH946.ltrans14.ltrans.o
 .ARM.attributes
                0x000004d9       0x31 C:\Users\apsyvert\AppData\Local\Temp\cc8fH946.ltrans15.ltrans.o
 .ARM.attributes
                0x0000050a       0x31 C:\Users\apsyvert\AppData\Local\Temp\cc8fH946.ltrans16.ltrans.o
 .ARM.attributes
                0x0000053b       0x31 C:\Users\apsyvert\AppData\Local\Temp\cc8fH946.ltrans17.ltrans.o
 .ARM.attributes
                0x0000056c       0x31 C:\Users\apsyvert\AppData\Local\Temp\cc8fH946.ltrans18.ltrans.o
 .ARM.attributes
                0x0000059d       0x31 C:\Users\apsyvert\AppData\Local\Temp\cc8fH946.ltrans19.ltrans.o
 .ARM.attributes
                0x000005ce       0x31 C:\Users\apsyvert\AppData\Local\Temp\cc8fH946.ltrans20.ltrans.o
 .ARM.attributes
                0x000005ff       0x31 C:\Users\apsyvert\AppData\Local\Temp\cc8fH946.ltrans21.ltrans.o
 .ARM.attributes
                0x00000630       0x31 C:\Users\apsyvert\AppData\Local\Temp\cc8fH946.ltrans22.ltrans.o
 .ARM.attributes
                0x00000661       0x31 C:\Users\apsyvert\AppData\Local\Temp\cc8fH946.ltrans23.ltrans.o
 .ARM.attributes
                0x00000692       0x31 C:\Users\apsyvert\AppData\Local\Temp\cc8fH946.ltrans24.ltrans.o
 .ARM.attributes
                0x000006c3       0x31 C:\Users\apsyvert\AppData\Local\Temp\cc8fH946.ltrans25.ltrans.o
 .ARM.attributes
                0x000006f4       0x31 C:\Users\apsyvert\AppData\Local\Temp\cc8fH946.ltrans26.ltrans.o
 .ARM.attributes
                0x00000725       0x31 C:\Users\apsyvert\AppData\Local\Temp\cc8fH946.ltrans27.ltrans.o
 .ARM.attributes
                0x00000756       0x31 C:\Users\apsyvert\AppData\Local\Temp\cc8fH946.ltrans28.ltrans.o
 .ARM.attributes
                0x00000787       0x31 C:\Users\apsyvert\AppData\Local\Temp\cc8fH946.ltrans29.ltrans.o
 .ARM.attributes
                0x000007b8       0x31 C:\Users\apsyvert\AppData\Local\Temp\cc8fH946.ltrans30.ltrans.o
 .ARM.attributes
                0x000007e9       0x1d c:/siliconlabs/simplicitystudio/v3/developer/toolchains/gnu_arm/4.8_2013q4/bin/../lib/gcc/arm-none-eabi/4.8.3/armv7-m\libgcc.a(_arm_addsubdf3.o)
 .ARM.attributes
                0x00000806       0x1d c:/siliconlabs/simplicitystudio/v3/developer/toolchains/gnu_arm/4.8_2013q4/bin/../lib/gcc/arm-none-eabi/4.8.3/armv7-m\libgcc.a(_arm_muldivdf3.o)
 .ARM.attributes
                0x00000823       0x1d c:/siliconlabs/simplicitystudio/v3/developer/toolchains/gnu_arm/4.8_2013q4/bin/../lib/gcc/arm-none-eabi/4.8.3/armv7-m\libgcc.a(_arm_cmpdf2.o)
 .ARM.attributes
                0x00000840       0x1d c:/siliconlabs/simplicitystudio/v3/developer/toolchains/gnu_arm/4.8_2013q4/bin/../lib/gcc/arm-none-eabi/4.8.3/armv7-m\libgcc.a(_arm_unorddf2.o)
 .ARM.attributes
                0x0000085d       0x1d c:/siliconlabs/simplicitystudio/v3/developer/toolchains/gnu_arm/4.8_2013q4/bin/../lib/gcc/arm-none-eabi/4.8.3/armv7-m\libgcc.a(_arm_fixdfsi.o)
 .ARM.attributes
                0x0000087a       0x1d c:/siliconlabs/simplicitystudio/v3/developer/toolchains/gnu_arm/4.8_2013q4/bin/../lib/gcc/arm-none-eabi/4.8.3/armv7-m\libgcc.a(_arm_fixunsdfsi.o)
 .ARM.attributes
                0x00000897       0x1d c:/siliconlabs/simplicitystudio/v3/developer/toolchains/gnu_arm/4.8_2013q4/bin/../lib/gcc/arm-none-eabi/4.8.3/armv7-m\libgcc.a(_arm_truncdfsf2.o)
 .ARM.attributes
                0x000008b4       0x1d c:/siliconlabs/simplicitystudio/v3/developer/toolchains/gnu_arm/4.8_2013q4/bin/../lib/gcc/arm-none-eabi/4.8.3/armv7-m\libgcc.a(_aeabi_ldivmod.o)
 .ARM.attributes
                0x000008d1       0x1d c:/siliconlabs/simplicitystudio/v3/developer/toolchains/gnu_arm/4.8_2013q4/bin/../lib/gcc/arm-none-eabi/4.8.3/armv7-m\libgcc.a(_aeabi_uldivmod.o)
 .ARM.attributes
                0x000008ee       0x2d c:/siliconlabs/simplicitystudio/v3/developer/toolchains/gnu_arm/4.8_2013q4/bin/../lib/gcc/arm-none-eabi/4.8.3/armv7-m\libgcc.a(_fixdfdi.o)
 .ARM.attributes
                0x0000091b       0x2d c:/siliconlabs/simplicitystudio/v3/developer/toolchains/gnu_arm/4.8_2013q4/bin/../lib/gcc/arm-none-eabi/4.8.3/armv7-m\libgcc.a(_fixunsdfdi.o)
 .ARM.attributes
                0x00000948       0x2d c:/siliconlabs/simplicitystudio/v3/developer/toolchains/gnu_arm/4.8_2013q4/bin/../lib/gcc/arm-none-eabi/4.8.3/armv7-m\libgcc.a(bpabi.o)
 .ARM.attributes
                0x00000975       0x1d c:/siliconlabs/simplicitystudio/v3/developer/toolchains/gnu_arm/4.8_2013q4/bin/../lib/gcc/arm-none-eabi/4.8.3/armv7-m\libgcc.a(_dvmd_tls.o)
 .ARM.attributes
                0x00000992       0x2d c:/siliconlabs/simplicitystudio/v3/developer/toolchains/gnu_arm/4.8_2013q4/bin/../lib/gcc/arm-none-eabi/4.8.3/armv7-m\libgcc.a(_divdi3.o)
 .ARM.attributes
                0x000009bf       0x2d c:/siliconlabs/simplicitystudio/v3/developer/toolchains/gnu_arm/4.8_2013q4/bin/../lib/gcc/arm-none-eabi/4.8.3/armv7-m\libgcc.a(_udivdi3.o)
 .ARM.attributes
                0x000009ec       0x1b c:/siliconlabs/simplicitystudio/v3/developer/toolchains/gnu_arm/4.8_2013q4/bin/../lib/gcc/arm-none-eabi/4.8.3/../../../../arm-none-eabi/lib/armv7-m\libg.a(lib_a-memcpy.o)
 .ARM.attributes
                0x00000a07       0x2d c:/siliconlabs/simplicitystudio/v3/developer/toolchains/gnu_arm/4.8_2013q4/bin/../lib/gcc/arm-none-eabi/4.8.3/../../../../arm-none-eabi/lib/armv7-m\libg.a(lib_a-memmove.o)
 .ARM.attributes
                0x00000a34       0x1b c:/siliconlabs/simplicitystudio/v3/developer/toolchains/gnu_arm/4.8_2013q4/bin/../lib/gcc/arm-none-eabi/4.8.3/../../../../arm-none-eabi/lib/armv7-m\libg.a(lib_a-strcmp.o)
 .ARM.attributes
                0x00000a4f       0x2d c:/siliconlabs/simplicitystudio/v3/developer/toolchains/gnu_arm/4.8_2013q4/bin/../lib/gcc/arm-none-eabi/4.8.3/../../../../arm-none-eabi/lib/armv7-m\libg.a(lib_a-strlen.o)
 .ARM.attributes
                0x00000a7c       0x2d c:/siliconlabs/simplicitystudio/v3/developer/toolchains/gnu_arm/4.8_2013q4/bin/../lib/gcc/arm-none-eabi/4.8.3/../../../../arm-none-eabi/lib/armv7-m\libg.a(lib_a-strncat.o)
 .ARM.attributes
                0x00000aa9       0x2d c:/siliconlabs/simplicitystudio/v3/developer/toolchains/gnu_arm/4.8_2013q4/bin/../lib/gcc/arm-none-eabi/4.8.3/../../../../arm-none-eabi/lib/armv7-m\libg.a(lib_a-strncpy.o)
 .ARM.attributes
                0x00000ad6       0x2d c:/siliconlabs/simplicitystudio/v3/developer/toolchains/gnu_arm/4.8_2013q4/bin/../lib/gcc/arm-none-eabi/4.8.3/../../../../arm-none-eabi/lib/armv7-m\libg.a(lib_a-rand.o)
 .ARM.attributes
                0x00000b03       0x2d c:/siliconlabs/simplicitystudio/v3/developer/toolchains/gnu_arm/4.8_2013q4/bin/../lib/gcc/arm-none-eabi/4.8.3/armv7-m/crtend.o
 .ARM.attributes
                0x00000b30       0x1d c:/siliconlabs/simplicitystudio/v3/developer/toolchains/gnu_arm/4.8_2013q4/bin/../lib/gcc/arm-none-eabi/4.8.3/armv7-m/crtn.o

.comment        0x00000000       0x70
 .comment       0x00000000       0x70 C:\Users\apsyvert\AppData\Local\Temp\cc8fH946.ltrans0.ltrans.o
                                 0x71 (size before relaxing)
 .comment       0x00000000       0x71 C:\Users\apsyvert\AppData\Local\Temp\cc8fH946.ltrans1.ltrans.o
 .comment       0x00000000       0x71 C:\Users\apsyvert\AppData\Local\Temp\cc8fH946.ltrans2.ltrans.o
 .comment       0x00000000       0x71 C:\Users\apsyvert\AppData\Local\Temp\cc8fH946.ltrans3.ltrans.o
 .comment       0x00000000       0x71 C:\Users\apsyvert\AppData\Local\Temp\cc8fH946.ltrans4.ltrans.o
 .comment       0x00000000       0x71 C:\Users\apsyvert\AppData\Local\Temp\cc8fH946.ltrans5.ltrans.o
 .comment       0x00000000       0x71 C:\Users\apsyvert\AppData\Local\Temp\cc8fH946.ltrans6.ltrans.o
 .comment       0x00000000       0x71 C:\Users\apsyvert\AppData\Local\Temp\cc8fH946.ltrans7.ltrans.o
 .comment       0x00000000       0x71 C:\Users\apsyvert\AppData\Local\Temp\cc8fH946.ltrans8.ltrans.o
 .comment       0x00000000       0x71 C:\Users\apsyvert\AppData\Local\Temp\cc8fH946.ltrans9.ltrans.o
 .comment       0x00000000       0x71 C:\Users\apsyvert\AppData\Local\Temp\cc8fH946.ltrans10.ltrans.o
 .comment       0x00000000       0x71 C:\Users\apsyvert\AppData\Local\Temp\cc8fH946.ltrans11.ltrans.o
 .comment       0x00000000       0x71 C:\Users\apsyvert\AppData\Local\Temp\cc8fH946.ltrans12.ltrans.o
 .comment       0x00000000       0x71 C:\Users\apsyvert\AppData\Local\Temp\cc8fH946.ltrans13.ltrans.o
 .comment       0x00000000       0x71 C:\Users\apsyvert\AppData\Local\Temp\cc8fH946.ltrans14.ltrans.o
 .comment       0x00000000       0x71 C:\Users\apsyvert\AppData\Local\Temp\cc8fH946.ltrans15.ltrans.o
 .comment       0x00000000       0x71 C:\Users\apsyvert\AppData\Local\Temp\cc8fH946.ltrans16.ltrans.o
 .comment       0x00000000       0x71 C:\Users\apsyvert\AppData\Local\Temp\cc8fH946.ltrans17.ltrans.o
 .comment       0x00000000       0x71 C:\Users\apsyvert\AppData\Local\Temp\cc8fH946.ltrans18.ltrans.o
 .comment       0x00000000       0x71 C:\Users\apsyvert\AppData\Local\Temp\cc8fH946.ltrans19.ltrans.o
 .comment       0x00000000       0x71 C:\Users\apsyvert\AppData\Local\Temp\cc8fH946.ltrans20.ltrans.o
 .comment       0x00000000       0x71 C:\Users\apsyvert\AppData\Local\Temp\cc8fH946.ltrans21.ltrans.o
 .comment       0x00000000       0x71 C:\Users\apsyvert\AppData\Local\Temp\cc8fH946.ltrans22.ltrans.o
 .comment       0x00000000       0x71 C:\Users\apsyvert\AppData\Local\Temp\cc8fH946.ltrans23.ltrans.o
 .comment       0x00000000       0x71 C:\Users\apsyvert\AppData\Local\Temp\cc8fH946.ltrans24.ltrans.o
 .comment       0x00000000       0x71 C:\Users\apsyvert\AppData\Local\Temp\cc8fH946.ltrans25.ltrans.o
 .comment       0x00000000       0x71 C:\Users\apsyvert\AppData\Local\Temp\cc8fH946.ltrans26.ltrans.o
 .comment       0x00000000       0x71 C:\Users\apsyvert\AppData\Local\Temp\cc8fH946.ltrans27.ltrans.o
 .comment       0x00000000       0x71 C:\Users\apsyvert\AppData\Local\Temp\cc8fH946.ltrans28.ltrans.o
 .comment       0x00000000       0x71 C:\Users\apsyvert\AppData\Local\Temp\cc8fH946.ltrans29.ltrans.o
 .comment       0x00000000       0x71 C:\Users\apsyvert\AppData\Local\Temp\cc8fH946.ltrans30.ltrans.o

.debug_frame    0x00000000     0xbe78
 .debug_frame   0x00000000       0x28 c:/siliconlabs/simplicitystudio/v3/developer/toolchains/gnu_arm/4.8_2013q4/bin/../lib/gcc/arm-none-eabi/4.8.3/../../../../arm-none-eabi/lib/armv7-m\libc.a(lib_a-exit.o)
 .debug_frame   0x00000028       0x2c c:/siliconlabs/simplicitystudio/v3/developer/toolchains/gnu_arm/4.8_2013q4/bin/../lib/gcc/arm-none-eabi/4.8.3/../../../../arm-none-eabi/lib/armv7-m\libc.a(lib_a-init.o)
 .debug_frame   0x00000054       0x2c c:/siliconlabs/simplicitystudio/v3/developer/toolchains/gnu_arm/4.8_2013q4/bin/../lib/gcc/arm-none-eabi/4.8.3/../../../../arm-none-eabi/lib/armv7-m\libc.a(lib_a-memset.o)
 .debug_frame   0x00000080       0x48 c:/siliconlabs/simplicitystudio/v3/developer/toolchains/gnu_arm/4.8_2013q4/bin/../lib/gcc/arm-none-eabi/4.8.3/../../../../arm-none-eabi/lib/armv7-m\libc.a(lib_a-__call_atexit.o)
 .debug_frame   0x000000c8       0x20 c:/siliconlabs/simplicitystudio/v3/developer/toolchains/gnu_arm/4.8_2013q4/bin/../lib/gcc/arm-none-eabi/4.8.3/../../../../arm-none-eabi/lib/armv7-m\libc.a(lib_a-atexit.o)
 .debug_frame   0x000000e8       0x2c c:/siliconlabs/simplicitystudio/v3/developer/toolchains/gnu_arm/4.8_2013q4/bin/../lib/gcc/arm-none-eabi/4.8.3/../../../../arm-none-eabi/lib/armv7-m\libc.a(lib_a-fini.o)
 .debug_frame   0x00000114       0x30 c:/siliconlabs/simplicitystudio/v3/developer/toolchains/gnu_arm/4.8_2013q4/bin/../lib/gcc/arm-none-eabi/4.8.3/../../../../arm-none-eabi/lib/armv7-m\libc.a(lib_a-__atexit.o)
 .debug_frame   0x00000144       0x20 c:/siliconlabs/simplicitystudio/v3/developer/toolchains/gnu_arm/4.8_2013q4/bin/../lib/gcc/arm-none-eabi/4.8.3/../../../../arm-none-eabi/lib/armv7-m\libnosys.a(_exit.o)
 .debug_frame   0x00000164      0x684 C:\Users\apsyvert\AppData\Local\Temp\cc8fH946.ltrans0.ltrans.o
 .debug_frame   0x000007e8      0x624 C:\Users\apsyvert\AppData\Local\Temp\cc8fH946.ltrans1.ltrans.o
 .debug_frame   0x00000e0c      0x40c C:\Users\apsyvert\AppData\Local\Temp\cc8fH946.ltrans2.ltrans.o
 .debug_frame   0x00001218      0x718 C:\Users\apsyvert\AppData\Local\Temp\cc8fH946.ltrans3.ltrans.o
 .debug_frame   0x00001930      0x794 C:\Users\apsyvert\AppData\Local\Temp\cc8fH946.ltrans4.ltrans.o
 .debug_frame   0x000020c4      0x708 C:\Users\apsyvert\AppData\Local\Temp\cc8fH946.ltrans5.ltrans.o
 .debug_frame   0x000027cc      0x76c C:\Users\apsyvert\AppData\Local\Temp\cc8fH946.ltrans6.ltrans.o
 .debug_frame   0x00002f38      0x52c C:\Users\apsyvert\AppData\Local\Temp\cc8fH946.ltrans7.ltrans.o
 .debug_frame   0x00003464      0xbac C:\Users\apsyvert\AppData\Local\Temp\cc8fH946.ltrans8.ltrans.o
 .debug_frame   0x00004010      0xac0 C:\Users\apsyvert\AppData\Local\Temp\cc8fH946.ltrans9.ltrans.o
 .debug_frame   0x00004ad0      0x954 C:\Users\apsyvert\AppData\Local\Temp\cc8fH946.ltrans10.ltrans.o
 .debug_frame   0x00005424      0x2ac C:\Users\apsyvert\AppData\Local\Temp\cc8fH946.ltrans11.ltrans.o
 .debug_frame   0x000056d0      0x5e8 C:\Users\apsyvert\AppData\Local\Temp\cc8fH946.ltrans12.ltrans.o
 .debug_frame   0x00005cb8      0x604 C:\Users\apsyvert\AppData\Local\Temp\cc8fH946.ltrans13.ltrans.o
 .debug_frame   0x000062bc      0xc94 C:\Users\apsyvert\AppData\Local\Temp\cc8fH946.ltrans14.ltrans.o
 .debug_frame   0x00006f50      0x540 C:\Users\apsyvert\AppData\Local\Temp\cc8fH946.ltrans15.ltrans.o
 .debug_frame   0x00007490      0x214 C:\Users\apsyvert\AppData\Local\Temp\cc8fH946.ltrans16.ltrans.o
 .debug_frame   0x000076a4      0x480 C:\Users\apsyvert\AppData\Local\Temp\cc8fH946.ltrans17.ltrans.o
 .debug_frame   0x00007b24      0x8d8 C:\Users\apsyvert\AppData\Local\Temp\cc8fH946.ltrans18.ltrans.o
 .debug_frame   0x000083fc      0x154 C:\Users\apsyvert\AppData\Local\Temp\cc8fH946.ltrans19.ltrans.o
 .debug_frame   0x00008550      0x2bc C:\Users\apsyvert\AppData\Local\Temp\cc8fH946.ltrans20.ltrans.o
 .debug_frame   0x0000880c      0x224 C:\Users\apsyvert\AppData\Local\Temp\cc8fH946.ltrans21.ltrans.o
 .debug_frame   0x00008a30      0x6e8 C:\Users\apsyvert\AppData\Local\Temp\cc8fH946.ltrans22.ltrans.o
 .debug_frame   0x00009118      0x63c C:\Users\apsyvert\AppData\Local\Temp\cc8fH946.ltrans23.ltrans.o
 .debug_frame   0x00009754      0x554 C:\Users\apsyvert\AppData\Local\Temp\cc8fH946.ltrans24.ltrans.o
 .debug_frame   0x00009ca8      0x314 C:\Users\apsyvert\AppData\Local\Temp\cc8fH946.ltrans25.ltrans.o
 .debug_frame   0x00009fbc      0x374 C:\Users\apsyvert\AppData\Local\Temp\cc8fH946.ltrans26.ltrans.o
 .debug_frame   0x0000a330      0x564 C:\Users\apsyvert\AppData\Local\Temp\cc8fH946.ltrans27.ltrans.o
 .debug_frame   0x0000a894      0x450 C:\Users\apsyvert\AppData\Local\Temp\cc8fH946.ltrans28.ltrans.o
 .debug_frame   0x0000ace4      0xa98 C:\Users\apsyvert\AppData\Local\Temp\cc8fH946.ltrans29.ltrans.o
 .debug_frame   0x0000b77c      0x508 C:\Users\apsyvert\AppData\Local\Temp\cc8fH946.ltrans30.ltrans.o
 .debug_frame   0x0000bc84       0x2c c:/siliconlabs/simplicitystudio/v3/developer/toolchains/gnu_arm/4.8_2013q4/bin/../lib/gcc/arm-none-eabi/4.8.3/armv7-m\libgcc.a(_fixdfdi.o)
 .debug_frame   0x0000bcb0       0x2c c:/siliconlabs/simplicitystudio/v3/developer/toolchains/gnu_arm/4.8_2013q4/bin/../lib/gcc/arm-none-eabi/4.8.3/armv7-m\libgcc.a(_fixunsdfdi.o)
 .debug_frame   0x0000bcdc       0x58 c:/siliconlabs/simplicitystudio/v3/developer/toolchains/gnu_arm/4.8_2013q4/bin/../lib/gcc/arm-none-eabi/4.8.3/armv7-m\libgcc.a(bpabi.o)
 .debug_frame   0x0000bd34       0x34 c:/siliconlabs/simplicitystudio/v3/developer/toolchains/gnu_arm/4.8_2013q4/bin/../lib/gcc/arm-none-eabi/4.8.3/armv7-m\libgcc.a(_divdi3.o)
 .debug_frame   0x0000bd68       0x34 c:/siliconlabs/simplicitystudio/v3/developer/toolchains/gnu_arm/4.8_2013q4/bin/../lib/gcc/arm-none-eabi/4.8.3/armv7-m\libgcc.a(_udivdi3.o)
 .debug_frame   0x0000bd9c       0x2c c:/siliconlabs/simplicitystudio/v3/developer/toolchains/gnu_arm/4.8_2013q4/bin/../lib/gcc/arm-none-eabi/4.8.3/../../../../arm-none-eabi/lib/armv7-m\libg.a(lib_a-memmove.o)
 .debug_frame   0x0000bdc8       0x20 c:/siliconlabs/simplicitystudio/v3/developer/toolchains/gnu_arm/4.8_2013q4/bin/../lib/gcc/arm-none-eabi/4.8.3/../../../../arm-none-eabi/lib/armv7-m\libg.a(lib_a-strlen.o)
 .debug_frame   0x0000bde8       0x2c c:/siliconlabs/simplicitystudio/v3/developer/toolchains/gnu_arm/4.8_2013q4/bin/../lib/gcc/arm-none-eabi/4.8.3/../../../../arm-none-eabi/lib/armv7-m\libg.a(lib_a-strncat.o)
 .debug_frame   0x0000be14       0x2c c:/siliconlabs/simplicitystudio/v3/developer/toolchains/gnu_arm/4.8_2013q4/bin/../lib/gcc/arm-none-eabi/4.8.3/../../../../arm-none-eabi/lib/armv7-m\libg.a(lib_a-strncpy.o)
 .debug_frame   0x0000be40       0x38 c:/siliconlabs/simplicitystudio/v3/developer/toolchains/gnu_arm/4.8_2013q4/bin/../lib/gcc/arm-none-eabi/4.8.3/../../../../arm-none-eabi/lib/armv7-m\libg.a(lib_a-rand.o)

.debug_info     0x00000000    0x2cf3a
 .debug_info    0x00000000     0x414f C:\Users\apsyvert\AppData\Local\Temp\cc8fH946.ltrans0.ltrans.o
 .debug_info    0x0000414f     0x1a3c C:\Users\apsyvert\AppData\Local\Temp\cc8fH946.ltrans1.ltrans.o
 .debug_info    0x00005b8b     0x11fd C:\Users\apsyvert\AppData\Local\Temp\cc8fH946.ltrans2.ltrans.o
 .debug_info    0x00006d88     0x1f97 C:\Users\apsyvert\AppData\Local\Temp\cc8fH946.ltrans3.ltrans.o
 .debug_info    0x00008d1f     0x1b85 C:\Users\apsyvert\AppData\Local\Temp\cc8fH946.ltrans4.ltrans.o
 .debug_info    0x0000a8a4     0x177d C:\Users\apsyvert\AppData\Local\Temp\cc8fH946.ltrans5.ltrans.o
 .debug_info    0x0000c021     0x1824 C:\Users\apsyvert\AppData\Local\Temp\cc8fH946.ltrans6.ltrans.o
 .debug_info    0x0000d845     0x1697 C:\Users\apsyvert\AppData\Local\Temp\cc8fH946.ltrans7.ltrans.o
 .debug_info    0x0000eedc     0x28c2 C:\Users\apsyvert\AppData\Local\Temp\cc8fH946.ltrans8.ltrans.o
 .debug_info    0x0001179e     0x20d6 C:\Users\apsyvert\AppData\Local\Temp\cc8fH946.ltrans9.ltrans.o
 .debug_info    0x00013874     0x223c C:\Users\apsyvert\AppData\Local\Temp\cc8fH946.ltrans10.ltrans.o
 .debug_info    0x00015ab0      0x7da C:\Users\apsyvert\AppData\Local\Temp\cc8fH946.ltrans11.ltrans.o
 .debug_info    0x0001628a      0xd76 C:\Users\apsyvert\AppData\Local\Temp\cc8fH946.ltrans12.ltrans.o
 .debug_info    0x00017000     0x1769 C:\Users\apsyvert\AppData\Local\Temp\cc8fH946.ltrans13.ltrans.o
 .debug_info    0x00018769     0x20f7 C:\Users\apsyvert\AppData\Local\Temp\cc8fH946.ltrans14.ltrans.o
 .debug_info    0x0001a860     0x1847 C:\Users\apsyvert\AppData\Local\Temp\cc8fH946.ltrans15.ltrans.o
 .debug_info    0x0001c0a7     0x1289 C:\Users\apsyvert\AppData\Local\Temp\cc8fH946.ltrans16.ltrans.o
 .debug_info    0x0001d330     0x12e2 C:\Users\apsyvert\AppData\Local\Temp\cc8fH946.ltrans17.ltrans.o
 .debug_info    0x0001e612     0x1d10 C:\Users\apsyvert\AppData\Local\Temp\cc8fH946.ltrans18.ltrans.o
 .debug_info    0x00020322      0xc16 C:\Users\apsyvert\AppData\Local\Temp\cc8fH946.ltrans19.ltrans.o
 .debug_info    0x00020f38      0xcff C:\Users\apsyvert\AppData\Local\Temp\cc8fH946.ltrans20.ltrans.o
 .debug_info    0x00021c37     0x10a7 C:\Users\apsyvert\AppData\Local\Temp\cc8fH946.ltrans21.ltrans.o
 .debug_info    0x00022cde     0x16b4 C:\Users\apsyvert\AppData\Local\Temp\cc8fH946.ltrans22.ltrans.o
 .debug_info    0x00024392     0x11f6 C:\Users\apsyvert\AppData\Local\Temp\cc8fH946.ltrans23.ltrans.o
 .debug_info    0x00025588     0x1317 C:\Users\apsyvert\AppData\Local\Temp\cc8fH946.ltrans24.ltrans.o
 .debug_info    0x0002689f     0x107c C:\Users\apsyvert\AppData\Local\Temp\cc8fH946.ltrans25.ltrans.o
 .debug_info    0x0002791b      0xf19 C:\Users\apsyvert\AppData\Local\Temp\cc8fH946.ltrans26.ltrans.o
 .debug_info    0x00028834     0x1331 C:\Users\apsyvert\AppData\Local\Temp\cc8fH946.ltrans27.ltrans.o
 .debug_info    0x00029b65      0xf06 C:\Users\apsyvert\AppData\Local\Temp\cc8fH946.ltrans28.ltrans.o
 .debug_info    0x0002aa6b     0x1471 C:\Users\apsyvert\AppData\Local\Temp\cc8fH946.ltrans29.ltrans.o
 .debug_info    0x0002bedc     0x105e C:\Users\apsyvert\AppData\Local\Temp\cc8fH946.ltrans30.ltrans.o

.debug_abbrev   0x00000000     0x6198
 .debug_abbrev  0x00000000      0x3d4 C:\Users\apsyvert\AppData\Local\Temp\cc8fH946.ltrans0.ltrans.o
 .debug_abbrev  0x000003d4      0x3f9 C:\Users\apsyvert\AppData\Local\Temp\cc8fH946.ltrans1.ltrans.o
 .debug_abbrev  0x000007cd      0x30b C:\Users\apsyvert\AppData\Local\Temp\cc8fH946.ltrans2.ltrans.o
 .debug_abbrev  0x00000ad8      0x38e C:\Users\apsyvert\AppData\Local\Temp\cc8fH946.ltrans3.ltrans.o
 .debug_abbrev  0x00000e66      0x3bb C:\Users\apsyvert\AppData\Local\Temp\cc8fH946.ltrans4.ltrans.o
 .debug_abbrev  0x00001221      0x367 C:\Users\apsyvert\AppData\Local\Temp\cc8fH946.ltrans5.ltrans.o
 .debug_abbrev  0x00001588      0x311 C:\Users\apsyvert\AppData\Local\Temp\cc8fH946.ltrans6.ltrans.o
 .debug_abbrev  0x00001899      0x319 C:\Users\apsyvert\AppData\Local\Temp\cc8fH946.ltrans7.ltrans.o
 .debug_abbrev  0x00001bb2      0x48d C:\Users\apsyvert\AppData\Local\Temp\cc8fH946.ltrans8.ltrans.o
 .debug_abbrev  0x0000203f      0x4b7 C:\Users\apsyvert\AppData\Local\Temp\cc8fH946.ltrans9.ltrans.o
 .debug_abbrev  0x000024f6      0x554 C:\Users\apsyvert\AppData\Local\Temp\cc8fH946.ltrans10.ltrans.o
 .debug_abbrev  0x00002a4a      0x1d9 C:\Users\apsyvert\AppData\Local\Temp\cc8fH946.ltrans11.ltrans.o
 .debug_abbrev  0x00002c23      0x21f C:\Users\apsyvert\AppData\Local\Temp\cc8fH946.ltrans12.ltrans.o
 .debug_abbrev  0x00002e42      0x2ec C:\Users\apsyvert\AppData\Local\Temp\cc8fH946.ltrans13.ltrans.o
 .debug_abbrev  0x0000312e      0x44b C:\Users\apsyvert\AppData\Local\Temp\cc8fH946.ltrans14.ltrans.o
 .debug_abbrev  0x00003579      0x44c C:\Users\apsyvert\AppData\Local\Temp\cc8fH946.ltrans15.ltrans.o
 .debug_abbrev  0x000039c5      0x22e C:\Users\apsyvert\AppData\Local\Temp\cc8fH946.ltrans16.ltrans.o
 .debug_abbrev  0x00003bf3      0x2b7 C:\Users\apsyvert\AppData\Local\Temp\cc8fH946.ltrans17.ltrans.o
 .debug_abbrev  0x00003eaa      0x3fd C:\Users\apsyvert\AppData\Local\Temp\cc8fH946.ltrans18.ltrans.o
 .debug_abbrev  0x000042a7      0x199 C:\Users\apsyvert\AppData\Local\Temp\cc8fH946.ltrans19.ltrans.o
 .debug_abbrev  0x00004440      0x215 C:\Users\apsyvert\AppData\Local\Temp\cc8fH946.ltrans20.ltrans.o
 .debug_abbrev  0x00004655      0x20f C:\Users\apsyvert\AppData\Local\Temp\cc8fH946.ltrans21.ltrans.o
 .debug_abbrev  0x00004864      0x486 C:\Users\apsyvert\AppData\Local\Temp\cc8fH946.ltrans22.ltrans.o
 .debug_abbrev  0x00004cea      0x37e C:\Users\apsyvert\AppData\Local\Temp\cc8fH946.ltrans23.ltrans.o
 .debug_abbrev  0x00005068      0x375 C:\Users\apsyvert\AppData\Local\Temp\cc8fH946.ltrans24.ltrans.o
 .debug_abbrev  0x000053dd      0x1a9 C:\Users\apsyvert\AppData\Local\Temp\cc8fH946.ltrans25.ltrans.o
 .debug_abbrev  0x00005586      0x198 C:\Users\apsyvert\AppData\Local\Temp\cc8fH946.ltrans26.ltrans.o
 .debug_abbrev  0x0000571e      0x1cb C:\Users\apsyvert\AppData\Local\Temp\cc8fH946.ltrans27.ltrans.o
 .debug_abbrev  0x000058e9      0x1e5 C:\Users\apsyvert\AppData\Local\Temp\cc8fH946.ltrans28.ltrans.o
 .debug_abbrev  0x00005ace      0x3bd C:\Users\apsyvert\AppData\Local\Temp\cc8fH946.ltrans29.ltrans.o
 .debug_abbrev  0x00005e8b      0x30d C:\Users\apsyvert\AppData\Local\Temp\cc8fH946.ltrans30.ltrans.o

.debug_aranges  0x00000000     0x32a8
 .debug_aranges
                0x00000000      0x1b8 C:\Users\apsyvert\AppData\Local\Temp\cc8fH946.ltrans0.ltrans.o
 .debug_aranges
                0x000001b8      0x1a8 C:\Users\apsyvert\AppData\Local\Temp\cc8fH946.ltrans1.ltrans.o
 .debug_aranges
                0x00000360      0x118 C:\Users\apsyvert\AppData\Local\Temp\cc8fH946.ltrans2.ltrans.o
 .debug_aranges
                0x00000478      0x1e0 C:\Users\apsyvert\AppData\Local\Temp\cc8fH946.ltrans3.ltrans.o
 .debug_aranges
                0x00000658      0x208 C:\Users\apsyvert\AppData\Local\Temp\cc8fH946.ltrans4.ltrans.o
 .debug_aranges
                0x00000860      0x1e0 C:\Users\apsyvert\AppData\Local\Temp\cc8fH946.ltrans5.ltrans.o
 .debug_aranges
                0x00000a40      0x1f0 C:\Users\apsyvert\AppData\Local\Temp\cc8fH946.ltrans6.ltrans.o
 .debug_aranges
                0x00000c30      0x168 C:\Users\apsyvert\AppData\Local\Temp\cc8fH946.ltrans7.ltrans.o
 .debug_aranges
                0x00000d98      0x338 C:\Users\apsyvert\AppData\Local\Temp\cc8fH946.ltrans8.ltrans.o
 .debug_aranges
                0x000010d0      0x310 C:\Users\apsyvert\AppData\Local\Temp\cc8fH946.ltrans9.ltrans.o
 .debug_aranges
                0x000013e0      0x280 C:\Users\apsyvert\AppData\Local\Temp\cc8fH946.ltrans10.ltrans.o
 .debug_aranges
                0x00001660       0xc0 C:\Users\apsyvert\AppData\Local\Temp\cc8fH946.ltrans11.ltrans.o
 .debug_aranges
                0x00001720      0x160 C:\Users\apsyvert\AppData\Local\Temp\cc8fH946.ltrans12.ltrans.o
 .debug_aranges
                0x00001880      0x1a0 C:\Users\apsyvert\AppData\Local\Temp\cc8fH946.ltrans13.ltrans.o
 .debug_aranges
                0x00001a20      0x378 C:\Users\apsyvert\AppData\Local\Temp\cc8fH946.ltrans14.ltrans.o
 .debug_aranges
                0x00001d98      0x178 C:\Users\apsyvert\AppData\Local\Temp\cc8fH946.ltrans15.ltrans.o
 .debug_aranges
                0x00001f10       0x98 C:\Users\apsyvert\AppData\Local\Temp\cc8fH946.ltrans16.ltrans.o
 .debug_aranges
                0x00001fa8      0x138 C:\Users\apsyvert\AppData\Local\Temp\cc8fH946.ltrans17.ltrans.o
 .debug_aranges
                0x000020e0      0x260 C:\Users\apsyvert\AppData\Local\Temp\cc8fH946.ltrans18.ltrans.o
 .debug_aranges
                0x00002340       0x68 C:\Users\apsyvert\AppData\Local\Temp\cc8fH946.ltrans19.ltrans.o
 .debug_aranges
                0x000023a8       0xc8 C:\Users\apsyvert\AppData\Local\Temp\cc8fH946.ltrans20.ltrans.o
 .debug_aranges
                0x00002470       0xa0 C:\Users\apsyvert\AppData\Local\Temp\cc8fH946.ltrans21.ltrans.o
 .debug_aranges
                0x00002510      0x1d8 C:\Users\apsyvert\AppData\Local\Temp\cc8fH946.ltrans22.ltrans.o
 .debug_aranges
                0x000026e8      0x1a8 C:\Users\apsyvert\AppData\Local\Temp\cc8fH946.ltrans23.ltrans.o
 .debug_aranges
                0x00002890      0x170 C:\Users\apsyvert\AppData\Local\Temp\cc8fH946.ltrans24.ltrans.o
 .debug_aranges
                0x00002a00       0xd8 C:\Users\apsyvert\AppData\Local\Temp\cc8fH946.ltrans25.ltrans.o
 .debug_aranges
                0x00002ad8       0xf0 C:\Users\apsyvert\AppData\Local\Temp\cc8fH946.ltrans26.ltrans.o
 .debug_aranges
                0x00002bc8      0x168 C:\Users\apsyvert\AppData\Local\Temp\cc8fH946.ltrans27.ltrans.o
 .debug_aranges
                0x00002d30      0x128 C:\Users\apsyvert\AppData\Local\Temp\cc8fH946.ltrans28.ltrans.o
 .debug_aranges
                0x00002e58      0x2f0 C:\Users\apsyvert\AppData\Local\Temp\cc8fH946.ltrans29.ltrans.o
 .debug_aranges
                0x00003148      0x160 C:\Users\apsyvert\AppData\Local\Temp\cc8fH946.ltrans30.ltrans.o

.debug_ranges   0x00000000     0x32b0
 .debug_ranges  0x00000000      0x1c0 C:\Users\apsyvert\AppData\Local\Temp\cc8fH946.ltrans0.ltrans.o
 .debug_ranges  0x000001c0      0x1b0 C:\Users\apsyvert\AppData\Local\Temp\cc8fH946.ltrans1.ltrans.o
 .debug_ranges  0x00000370      0x108 C:\Users\apsyvert\AppData\Local\Temp\cc8fH946.ltrans2.ltrans.o
 .debug_ranges  0x00000478      0x208 C:\Users\apsyvert\AppData\Local\Temp\cc8fH946.ltrans3.ltrans.o
 .debug_ranges  0x00000680      0x1f8 C:\Users\apsyvert\AppData\Local\Temp\cc8fH946.ltrans4.ltrans.o
 .debug_ranges  0x00000878      0x1d0 C:\Users\apsyvert\AppData\Local\Temp\cc8fH946.ltrans5.ltrans.o
 .debug_ranges  0x00000a48      0x1e0 C:\Users\apsyvert\AppData\Local\Temp\cc8fH946.ltrans6.ltrans.o
 .debug_ranges  0x00000c28      0x170 C:\Users\apsyvert\AppData\Local\Temp\cc8fH946.ltrans7.ltrans.o
 .debug_ranges  0x00000d98      0x328 C:\Users\apsyvert\AppData\Local\Temp\cc8fH946.ltrans8.ltrans.o
 .debug_ranges  0x000010c0      0x300 C:\Users\apsyvert\AppData\Local\Temp\cc8fH946.ltrans9.ltrans.o
 .debug_ranges  0x000013c0      0x270 C:\Users\apsyvert\AppData\Local\Temp\cc8fH946.ltrans10.ltrans.o
 .debug_ranges  0x00001630       0xb0 C:\Users\apsyvert\AppData\Local\Temp\cc8fH946.ltrans11.ltrans.o
 .debug_ranges  0x000016e0      0x150 C:\Users\apsyvert\AppData\Local\Temp\cc8fH946.ltrans12.ltrans.o
 .debug_ranges  0x00001830      0x190 C:\Users\apsyvert\AppData\Local\Temp\cc8fH946.ltrans13.ltrans.o
 .debug_ranges  0x000019c0      0x368 C:\Users\apsyvert\AppData\Local\Temp\cc8fH946.ltrans14.ltrans.o
 .debug_ranges  0x00001d28      0x168 C:\Users\apsyvert\AppData\Local\Temp\cc8fH946.ltrans15.ltrans.o
 .debug_ranges  0x00001e90       0xa0 C:\Users\apsyvert\AppData\Local\Temp\cc8fH946.ltrans16.ltrans.o
 .debug_ranges  0x00001f30      0x158 C:\Users\apsyvert\AppData\Local\Temp\cc8fH946.ltrans17.ltrans.o
 .debug_ranges  0x00002088      0x250 C:\Users\apsyvert\AppData\Local\Temp\cc8fH946.ltrans18.ltrans.o
 .debug_ranges  0x000022d8       0x70 C:\Users\apsyvert\AppData\Local\Temp\cc8fH946.ltrans19.ltrans.o
 .debug_ranges  0x00002348       0xb8 C:\Users\apsyvert\AppData\Local\Temp\cc8fH946.ltrans20.ltrans.o
 .debug_ranges  0x00002400       0xf0 C:\Users\apsyvert\AppData\Local\Temp\cc8fH946.ltrans21.ltrans.o
 .debug_ranges  0x000024f0      0x230 C:\Users\apsyvert\AppData\Local\Temp\cc8fH946.ltrans22.ltrans.o
 .debug_ranges  0x00002720      0x198 C:\Users\apsyvert\AppData\Local\Temp\cc8fH946.ltrans23.ltrans.o
 .debug_ranges  0x000028b8      0x160 C:\Users\apsyvert\AppData\Local\Temp\cc8fH946.ltrans24.ltrans.o
 .debug_ranges  0x00002a18       0xc8 C:\Users\apsyvert\AppData\Local\Temp\cc8fH946.ltrans25.ltrans.o
 .debug_ranges  0x00002ae0       0xe0 C:\Users\apsyvert\AppData\Local\Temp\cc8fH946.ltrans26.ltrans.o
 .debug_ranges  0x00002bc0      0x158 C:\Users\apsyvert\AppData\Local\Temp\cc8fH946.ltrans27.ltrans.o
 .debug_ranges  0x00002d18      0x150 C:\Users\apsyvert\AppData\Local\Temp\cc8fH946.ltrans28.ltrans.o
 .debug_ranges  0x00002e68      0x2e0 C:\Users\apsyvert\AppData\Local\Temp\cc8fH946.ltrans29.ltrans.o
 .debug_ranges  0x00003148      0x168 C:\Users\apsyvert\AppData\Local\Temp\cc8fH946.ltrans30.ltrans.o

.debug_line     0x00000000     0xee70
 .debug_line    0x00000000      0xe8e C:\Users\apsyvert\AppData\Local\Temp\cc8fH946.ltrans0.ltrans.o
 .debug_line    0x00000e8e      0x7bd C:\Users\apsyvert\AppData\Local\Temp\cc8fH946.ltrans1.ltrans.o
 .debug_line    0x0000164b      0x57b C:\Users\apsyvert\AppData\Local\Temp\cc8fH946.ltrans2.ltrans.o
 .debug_line    0x00001bc6      0x8ae C:\Users\apsyvert\AppData\Local\Temp\cc8fH946.ltrans3.ltrans.o
 .debug_line    0x00002474      0x86d C:\Users\apsyvert\AppData\Local\Temp\cc8fH946.ltrans4.ltrans.o
 .debug_line    0x00002ce1      0x7e8 C:\Users\apsyvert\AppData\Local\Temp\cc8fH946.ltrans5.ltrans.o
 .debug_line    0x000034c9      0x842 C:\Users\apsyvert\AppData\Local\Temp\cc8fH946.ltrans6.ltrans.o
 .debug_line    0x00003d0b      0x827 C:\Users\apsyvert\AppData\Local\Temp\cc8fH946.ltrans7.ltrans.o
 .debug_line    0x00004532     0x10a5 C:\Users\apsyvert\AppData\Local\Temp\cc8fH946.ltrans8.ltrans.o
 .debug_line    0x000055d7      0xf0f C:\Users\apsyvert\AppData\Local\Temp\cc8fH946.ltrans9.ltrans.o
 .debug_line    0x000064e6      0xc50 C:\Users\apsyvert\AppData\Local\Temp\cc8fH946.ltrans10.ltrans.o
 .debug_line    0x00007136      0x459 C:\Users\apsyvert\AppData\Local\Temp\cc8fH946.ltrans11.ltrans.o
 .debug_line    0x0000758f      0x648 C:\Users\apsyvert\AppData\Local\Temp\cc8fH946.ltrans12.ltrans.o
 .debug_line    0x00007bd7      0x838 C:\Users\apsyvert\AppData\Local\Temp\cc8fH946.ltrans13.ltrans.o
 .debug_line    0x0000840f      0xbd7 C:\Users\apsyvert\AppData\Local\Temp\cc8fH946.ltrans14.ltrans.o
 .debug_line    0x00008fe6      0x6f8 C:\Users\apsyvert\AppData\Local\Temp\cc8fH946.ltrans15.ltrans.o
 .debug_line    0x000096de      0x4d3 C:\Users\apsyvert\AppData\Local\Temp\cc8fH946.ltrans16.ltrans.o
 .debug_line    0x00009bb1      0x5f1 C:\Users\apsyvert\AppData\Local\Temp\cc8fH946.ltrans17.ltrans.o
 .debug_line    0x0000a1a2      0x90b C:\Users\apsyvert\AppData\Local\Temp\cc8fH946.ltrans18.ltrans.o
 .debug_line    0x0000aaad      0x435 C:\Users\apsyvert\AppData\Local\Temp\cc8fH946.ltrans19.ltrans.o
 .debug_line    0x0000aee2      0x41b C:\Users\apsyvert\AppData\Local\Temp\cc8fH946.ltrans20.ltrans.o
 .debug_line    0x0000b2fd      0x4af C:\Users\apsyvert\AppData\Local\Temp\cc8fH946.ltrans21.ltrans.o
 .debug_line    0x0000b7ac      0x799 C:\Users\apsyvert\AppData\Local\Temp\cc8fH946.ltrans22.ltrans.o
 .debug_line    0x0000bf45      0x64f C:\Users\apsyvert\AppData\Local\Temp\cc8fH946.ltrans23.ltrans.o
 .debug_line    0x0000c594      0x60c C:\Users\apsyvert\AppData\Local\Temp\cc8fH946.ltrans24.ltrans.o
 .debug_line    0x0000cba0      0x491 C:\Users\apsyvert\AppData\Local\Temp\cc8fH946.ltrans25.ltrans.o
 .debug_line    0x0000d031      0x478 C:\Users\apsyvert\AppData\Local\Temp\cc8fH946.ltrans26.ltrans.o
 .debug_line    0x0000d4a9      0x5c1 C:\Users\apsyvert\AppData\Local\Temp\cc8fH946.ltrans27.ltrans.o
 .debug_line    0x0000da6a      0x50f C:\Users\apsyvert\AppData\Local\Temp\cc8fH946.ltrans28.ltrans.o
 .debug_line    0x0000df79      0x8b3 C:\Users\apsyvert\AppData\Local\Temp\cc8fH946.ltrans29.ltrans.o
 .debug_line    0x0000e82c      0x644 C:\Users\apsyvert\AppData\Local\Temp\cc8fH946.ltrans30.ltrans.o

.debug_str      0x00000000     0xf37a
 .debug_str     0x00000000     0x35de C:\Users\apsyvert\AppData\Local\Temp\cc8fH946.ltrans0.ltrans.o
                               0x36d2 (size before relaxing)
 .debug_str     0x000035de      0x65e C:\Users\apsyvert\AppData\Local\Temp\cc8fH946.ltrans1.ltrans.o
                               0x1210 (size before relaxing)
 .debug_str     0x00003c3c      0x46c C:\Users\apsyvert\AppData\Local\Temp\cc8fH946.ltrans2.ltrans.o
                                0xdbc (size before relaxing)
 .debug_str     0x000040a8      0x829 C:\Users\apsyvert\AppData\Local\Temp\cc8fH946.ltrans3.ltrans.o
                               0x1a77 (size before relaxing)
 .debug_str     0x000048d1      0x786 C:\Users\apsyvert\AppData\Local\Temp\cc8fH946.ltrans4.ltrans.o
                               0x14a9 (size before relaxing)
 .debug_str     0x00005057      0x584 C:\Users\apsyvert\AppData\Local\Temp\cc8fH946.ltrans5.ltrans.o
                                0xeed (size before relaxing)
 .debug_str     0x000055db      0x5c2 C:\Users\apsyvert\AppData\Local\Temp\cc8fH946.ltrans6.ltrans.o
                                0xfcd (size before relaxing)
 .debug_str     0x00005b9d      0x4f4 C:\Users\apsyvert\AppData\Local\Temp\cc8fH946.ltrans7.ltrans.o
                                0xe5f (size before relaxing)
 .debug_str     0x00006091     0x18c6 C:\Users\apsyvert\AppData\Local\Temp\cc8fH946.ltrans8.ltrans.o
                               0x1fd7 (size before relaxing)
 .debug_str     0x00007957     0x1112 C:\Users\apsyvert\AppData\Local\Temp\cc8fH946.ltrans9.ltrans.o
                               0x1e6d (size before relaxing)
 .debug_str     0x00008a69      0x59d C:\Users\apsyvert\AppData\Local\Temp\cc8fH946.ltrans10.ltrans.o
                               0x1e89 (size before relaxing)
 .debug_str     0x00009006       0xd0 C:\Users\apsyvert\AppData\Local\Temp\cc8fH946.ltrans11.ltrans.o
                                0x26d (size before relaxing)
 .debug_str     0x000090d6      0x114 C:\Users\apsyvert\AppData\Local\Temp\cc8fH946.ltrans12.ltrans.o
                                0x2ee (size before relaxing)
 .debug_str     0x000091ea      0x897 C:\Users\apsyvert\AppData\Local\Temp\cc8fH946.ltrans13.ltrans.o
                               0x10f1 (size before relaxing)
 .debug_str     0x00009a81     0x13e1 C:\Users\apsyvert\AppData\Local\Temp\cc8fH946.ltrans14.ltrans.o
                               0x2424 (size before relaxing)
 .debug_str     0x0000ae62      0x525 C:\Users\apsyvert\AppData\Local\Temp\cc8fH946.ltrans15.ltrans.o
                               0x16da (size before relaxing)
 .debug_str     0x0000b387      0x341 C:\Users\apsyvert\AppData\Local\Temp\cc8fH946.ltrans16.ltrans.o
                                0xf79 (size before relaxing)
 .debug_str     0x0000b6c8      0x4d0 C:\Users\apsyvert\AppData\Local\Temp\cc8fH946.ltrans17.ltrans.o
                                0xf63 (size before relaxing)
 .debug_str     0x0000bb98      0x8cd C:\Users\apsyvert\AppData\Local\Temp\cc8fH946.ltrans18.ltrans.o
                               0x1ae5 (size before relaxing)
 .debug_str     0x0000c465      0x29e C:\Users\apsyvert\AppData\Local\Temp\cc8fH946.ltrans19.ltrans.o
                                0xc5e (size before relaxing)
 .debug_str     0x0000c703      0x217 C:\Users\apsyvert\AppData\Local\Temp\cc8fH946.ltrans20.ltrans.o
                                0xbac (size before relaxing)
 .debug_str     0x0000c91a      0x36c C:\Users\apsyvert\AppData\Local\Temp\cc8fH946.ltrans21.ltrans.o
                                0xda2 (size before relaxing)
 .debug_str     0x0000cc86      0x5cf C:\Users\apsyvert\AppData\Local\Temp\cc8fH946.ltrans22.ltrans.o
                               0x111e (size before relaxing)
 .debug_str     0x0000d255      0x523 C:\Users\apsyvert\AppData\Local\Temp\cc8fH946.ltrans23.ltrans.o
                                0xe54 (size before relaxing)
 .debug_str     0x0000d778      0x5db C:\Users\apsyvert\AppData\Local\Temp\cc8fH946.ltrans24.ltrans.o
                                0xfda (size before relaxing)
 .debug_str     0x0000dd53      0x2cc C:\Users\apsyvert\AppData\Local\Temp\cc8fH946.ltrans25.ltrans.o
                                0xaf1 (size before relaxing)
 .debug_str     0x0000e01f      0x2c8 C:\Users\apsyvert\AppData\Local\Temp\cc8fH946.ltrans26.ltrans.o
                                0xa4c (size before relaxing)
 .debug_str     0x0000e2e7      0x401 C:\Users\apsyvert\AppData\Local\Temp\cc8fH946.ltrans27.ltrans.o
                                0xc2c (size before relaxing)
 .debug_str     0x0000e6e8      0x2cb C:\Users\apsyvert\AppData\Local\Temp\cc8fH946.ltrans28.ltrans.o
                                0xa7a (size before relaxing)
 .debug_str     0x0000e9b3      0x755 C:\Users\apsyvert\AppData\Local\Temp\cc8fH946.ltrans29.ltrans.o
                               0x1192 (size before relaxing)
 .debug_str     0x0000f108      0x272 C:\Users\apsyvert\AppData\Local\Temp\cc8fH946.ltrans30.ltrans.o
                                0xba1 (size before relaxing)
